; ModuleID = 'alloc.db98974eb1e1f83e-cgu.0'
source_filename = "alloc.db98974eb1e1f83e-cgu.0"
target datalayout = "e-m:e-p:64:64-i64:64-i128:128-n32:64-S128"
target triple = "riscv64"

%"core::fmt::rt::Argument<'_>" = type { %"core::fmt::rt::ArgumentType<'_>" }
%"core::fmt::rt::ArgumentType<'_>" = type { ptr, [1 x i64] }

@alloc_e4c0784e4975da2173a354afd99193ad = private unnamed_addr constant <{ [101 x i8] }> <{ [101 x i8] c"unsafe precondition(s) violated: slice::get_unchecked_mut requires that the range is within the slice" }>, align 1
@alloc_424341b75ece3fa20496f1c69b9fb0ac = private unnamed_addr constant <{ [111 x i8] }> <{ [111 x i8] c"unsafe precondition(s) violated: ptr::write_bytes requires that the destination pointer is aligned and non-null" }>, align 1
@alloc_8df0580a595a87d56789d20c7318e185 = private unnamed_addr constant <{ [166 x i8] }> <{ [166 x i8] c"unsafe precondition(s) violated: ptr::copy_nonoverlapping requires that both pointer arguments are aligned and non-null and the specified memory ranges do not overlap" }>, align 1
@alloc_2f5fae7ca9908dec8d13988b47dc9dc4 = private unnamed_addr constant <{ [104 x i8] }> <{ [104 x i8] c"unsafe precondition(s) violated: ptr::copy requires that both pointer arguments are aligned and non-null" }>, align 1
@alloc_d1c03a1f2ac5174b3088e1d4a8a664e1 = private unnamed_addr constant <{ [105 x i8] }> <{ [105 x i8] c"/nix/store/hahzrgjq3ncgd241r37xm63ydm9xxfp7-rust-mixed/lib/rustlib/src/rust/library/core/src/ffi/c_str.rs" }>, align 1
@alloc_9f0d15b92aba5db727d77e6b46e60a6d = private unnamed_addr constant <{ ptr, [16 x i8] }> <{ ptr @alloc_d1c03a1f2ac5174b3088e1d4a8a664e1, [16 x i8] c"i\00\00\00\00\00\00\00\B0\01\00\00:\00\00\00" }>, align 8
@alloc_6458170d55f163cf8296d020f34783fa = private unnamed_addr constant <{ ptr, [16 x i8] }> <{ ptr @alloc_d1c03a1f2ac5174b3088e1d4a8a664e1, [16 x i8] c"i\00\00\00\00\00\00\00\B0\01\00\004\00\00\00" }>, align 8
@alloc_8d17c0d7765c1f1b0dc7acf59030ea5a = private unnamed_addr constant <{ [66 x i8] }> <{ [66 x i8] c"assertion failed: !bytes.is_empty() && bytes[bytes.len() - 1] == 0" }>, align 1
@alloc_7e539950dfc031d8f4e8dcd31988878b = private unnamed_addr constant <{ ptr, [16 x i8] }> <{ ptr @alloc_d1c03a1f2ac5174b3088e1d4a8a664e1, [16 x i8] c"i\00\00\00\00\00\00\00\B0\01\00\00\11\00\00\00" }>, align 8
@alloc_96dbbd18d2586395505ff540e7734837 = private unnamed_addr constant <{ ptr, [16 x i8] }> <{ ptr @alloc_d1c03a1f2ac5174b3088e1d4a8a664e1, [16 x i8] c"i\00\00\00\00\00\00\00\1F\01\00\00X\00\00\00" }>, align 8
@alloc_fda627a204408664747b80345fea4cda = private unnamed_addr constant <{ ptr, [16 x i8] }> <{ ptr @alloc_d1c03a1f2ac5174b3088e1d4a8a664e1, [16 x i8] c"i\00\00\00\00\00\00\00U\02\00\008\00\00\00" }>, align 8
@alloc_a43b508e8ea2d401cabcd7f7ed1bc1cb = private unnamed_addr constant <{ [103 x i8] }> <{ [103 x i8] c"/nix/store/hahzrgjq3ncgd241r37xm63ydm9xxfp7-rust-mixed/lib/rustlib/src/rust/library/core/src/fmt/mod.rs" }>, align 1
@alloc_169f356811361b0ca861a16299c49ec7 = private unnamed_addr constant <{ ptr, [16 x i8] }> <{ ptr @alloc_a43b508e8ea2d401cabcd7f7ed1bc1cb, [16 x i8] c"g\00\00\00\00\00\00\00w\02\00\00.\00\00\00" }>, align 8
@alloc_a8dd4e910fe494c40f40e713f79a72c4 = private unnamed_addr constant <{ [103 x i8] }> <{ [103 x i8] c"/nix/store/hahzrgjq3ncgd241r37xm63ydm9xxfp7-rust-mixed/lib/rustlib/src/rust/library/core/src/num/mod.rs" }>, align 1
@alloc_94d53e123a230fae37821433f56279b5 = private unnamed_addr constant <{ ptr, [16 x i8] }> <{ ptr @alloc_a8dd4e910fe494c40f40e713f79a72c4, [16 x i8] c"g\00\00\00\00\00\00\00\91\02\00\00\11\00\00\00" }>, align 8
@alloc_503d6b1c88920234878649959379ae93 = private unnamed_addr constant <{ ptr, [16 x i8] }> <{ ptr @alloc_a8dd4e910fe494c40f40e713f79a72c4, [16 x i8] c"g\00\00\00\00\00\00\00x\02\00\00\11\00\00\00" }>, align 8
@alloc_d304c5266651b8490d07d5bcb908bafa = private unnamed_addr constant <{ ptr, [16 x i8] }> <{ ptr @alloc_a8dd4e910fe494c40f40e713f79a72c4, [16 x i8] c"g\00\00\00\00\00\00\00\98\01\00\00\05\00\00\00" }>, align 8
@alloc_289b84035b3220255b84b8869a538376 = private unnamed_addr constant <{ [69 x i8] }> <{ [69 x i8] c"unsafe precondition(s) violated: usize::unchecked_add cannot overflow" }>, align 1
@alloc_ffc44ed1670ebf78d81555edceff65f6 = private unnamed_addr constant <{ [69 x i8] }> <{ [69 x i8] c"unsafe precondition(s) violated: usize::unchecked_mul cannot overflow" }>, align 1
@alloc_4910c64b4ac045acdaf52a268f526b79 = private unnamed_addr constant <{ ptr, [16 x i8] }> <{ ptr @alloc_a8dd4e910fe494c40f40e713f79a72c4, [16 x i8] c"g\00\00\00\00\00\00\00D\05\00\00\05\00\00\00" }>, align 8
@alloc_d4d2a2a8539eafc62756407d946babb3 = private unnamed_addr constant <{ [110 x i8] }> <{ [110 x i8] c"unsafe precondition(s) violated: ptr::read_volatile requires that the pointer argument is aligned and non-null" }>, align 1
@alloc_981fd9513041e1603a1d1d7b668a749d = private unnamed_addr constant <{ [101 x i8] }> <{ [101 x i8] c"unsafe precondition(s) violated: ptr::read requires that the pointer argument is aligned and non-null" }>, align 1
@alloc_b7474065d782af00c4610bb4ef55210b = private unnamed_addr constant <{ [102 x i8] }> <{ [102 x i8] c"unsafe precondition(s) violated: ptr::write requires that the pointer argument is aligned and non-null" }>, align 1
@alloc_0a14891e1e5c702b367f18048e678740 = private unnamed_addr constant <{ [97 x i8] }> <{ [97 x i8] c"unsafe precondition(s) violated: ptr::add requires that the address calculation does not overflow" }>, align 1
@alloc_20b3d155afd5c58c42e598b7e6d186ef = private unnamed_addr constant <{ [93 x i8] }> <{ [93 x i8] c"unsafe precondition(s) violated: NonNull::new_unchecked requires that the pointer is non-null" }>, align 1
@alloc_ec595fc0e82ef92fc59bd74f68296eae = private unnamed_addr constant <{ [73 x i8] }> <{ [73 x i8] c"assertion failed: 0 < pointee_size && pointee_size <= isize::MAX as usize" }>, align 1
@alloc_e63ee67e9f016291703fc30f0a3bafbb = private unnamed_addr constant <{ [109 x i8] }> <{ [109 x i8] c"/nix/store/hahzrgjq3ncgd241r37xm63ydm9xxfp7-rust-mixed/lib/rustlib/src/rust/library/core/src/ptr/const_ptr.rs" }>, align 1
@alloc_d798000f5e29a7ace65ad32e5f0d1042 = private unnamed_addr constant <{ ptr, [16 x i8] }> <{ ptr @alloc_e63ee67e9f016291703fc30f0a3bafbb, [16 x i8] c"m\00\00\00\00\00\00\00\0E\03\00\00\09\00\00\00" }>, align 8
@alloc_7efb3a7632b3620f628ce83a521b4d9b = private unnamed_addr constant <{ [71 x i8] }> <{ [71 x i8] c"unsafe precondition(s) violated: ptr::sub_ptr requires `self >= origin`" }>, align 1
@alloc_a5950421c53dc0311338c91af1c8a0af = private unnamed_addr constant <{ [111 x i8] }> <{ [111 x i8] c"/nix/store/hahzrgjq3ncgd241r37xm63ydm9xxfp7-rust-mixed/lib/rustlib/src/rust/library/core/src/str/validations.rs" }>, align 1
@alloc_d9e2802da4477df7b77952a1ddb0372e = private unnamed_addr constant <{ ptr, [16 x i8] }> <{ ptr @alloc_a5950421c53dc0311338c91af1c8a0af, [16 x i8] c"o\00\00\00\00\00\00\00\0C\00\00\00\0D\00\00\00" }>, align 8
@alloc_7c07a05f842324d6be0405323e60c45b = private unnamed_addr constant <{ ptr, [16 x i8] }> <{ ptr @alloc_a5950421c53dc0311338c91af1c8a0af, [16 x i8] c"o\00\00\00\00\00\00\00^\00\00\00)\00\00\00" }>, align 8
@alloc_46a923eb6db18588b7fa16266e38f8d0 = private unnamed_addr constant <{ ptr, [16 x i8] }> <{ ptr @alloc_a5950421c53dc0311338c91af1c8a0af, [16 x i8] c"o\00\00\00\00\00\00\00c\00\00\00-\00\00\00" }>, align 8
@alloc_d9aa37eaacf9955be967a8e431ed2fc1 = private unnamed_addr constant <{ ptr, [16 x i8] }> <{ ptr @alloc_a5950421c53dc0311338c91af1c8a0af, [16 x i8] c"o\00\00\00\00\00\00\00h\00\00\001\00\00\00" }>, align 8
@alloc_38d865ee598848532cbd764e0d6298fc = private unnamed_addr constant <{ [57 x i8] }> <{ [57 x i8] c"unsafe precondition(s) violated: invalid value for `char`" }>, align 1
@alloc_67341a965ea037d885c831ba2f04d9c3 = private unnamed_addr constant <{ [108 x i8] }> <{ [108 x i8] c"/nix/store/hahzrgjq3ncgd241r37xm63ydm9xxfp7-rust-mixed/lib/rustlib/src/rust/library/core/src/char/methods.rs" }>, align 1
@alloc_e454375bd4e2d7bf3d2181f3182870b2 = private unnamed_addr constant <{ ptr, [16 x i8] }> <{ ptr @alloc_67341a965ea037d885c831ba2f04d9c3, [16 x i8] c"l\00\00\00\00\00\00\00\16\07\00\00\0D\00\00\00" }>, align 8
@alloc_ab14703751a9eb3585c49b2e55e9a9e5 = private unnamed_addr constant <{ [104 x i8] }> <{ [104 x i8] c"unsafe precondition(s) violated: hint::assert_unchecked must never be called when the condition is false" }>, align 1
@alloc_7431955562f63ecb58909cc7619ec5a3 = private unnamed_addr constant <{ [113 x i8] }> <{ [113 x i8] c"/nix/store/hahzrgjq3ncgd241r37xm63ydm9xxfp7-rust-mixed/lib/rustlib/src/rust/library/core/src/iter/adapters/mod.rs" }>, align 1
@alloc_a24dbebe50c7330ea9e880a90209de3e = private unnamed_addr constant <{ ptr, [16 x i8] }> <{ ptr @alloc_7431955562f63ecb58909cc7619ec5a3, [16 x i8] c"q\00\00\00\00\00\00\00\A2\00\00\00\14\00\00\00" }>, align 8
@alloc_c3130451b7c81e38ff5790b41ab72b64 = private unnamed_addr constant <{ [108 x i8] }> <{ [108 x i8] c"/nix/store/hahzrgjq3ncgd241r37xm63ydm9xxfp7-rust-mixed/lib/rustlib/src/rust/library/core/src/alloc/layout.rs" }>, align 1
@alloc_b76487b54ad25f73c299361487488532 = private unnamed_addr constant <{ ptr, [16 x i8] }> <{ ptr @alloc_c3130451b7c81e38ff5790b41ab72b64, [16 x i8] c"l\00\00\00\00\00\00\00i\00\00\00 \00\00\00" }>, align 8
@alloc_cd1513ae8d1ae22acf9342b8dfa1561d = private unnamed_addr constant <{ [164 x i8] }> <{ [164 x i8] c"unsafe precondition(s) violated: Layout::from_size_align_unchecked requires that align is a power of 2 and the rounded-up allocation size does not exceed isize::MAX" }>, align 1
@alloc_a6e8913658d98d0dbd0444b57ddfd811 = private unnamed_addr constant <{ [27 x i8] }> <{ [27 x i8] c"chunk size must be non-zero" }>, align 1
@alloc_2cdbb89777c912da09e05e08ed401368 = private unnamed_addr constant <{ ptr, [8 x i8] }> <{ ptr @alloc_a6e8913658d98d0dbd0444b57ddfd811, [8 x i8] c"\1B\00\00\00\00\00\00\00" }>, align 8
@alloc_7d843728bf4d16111edf7d5771921810 = private unnamed_addr constant <{ [105 x i8] }> <{ [105 x i8] c"/nix/store/hahzrgjq3ncgd241r37xm63ydm9xxfp7-rust-mixed/lib/rustlib/src/rust/library/core/src/slice/mod.rs" }>, align 1
@alloc_871f925ed96b531f7787060e3d510a9e = private unnamed_addr constant <{ ptr, [16 x i8] }> <{ ptr @alloc_7d843728bf4d16111edf7d5771921810, [16 x i8] c"i\00\00\00\00\00\00\00\1F\0F\00\00\16\00\00\00" }>, align 8
@alloc_c27e56c692e13311a7048470a9bf5a0c = private unnamed_addr constant <{ ptr, [16 x i8] }> <{ ptr @alloc_7d843728bf4d16111edf7d5771921810, [16 x i8] c"i\00\00\00\00\00\00\00!\0F\00\00\16\00\00\00" }>, align 8
@alloc_acbb8b2e1996f2ad5ddbda55c6bd461e = private unnamed_addr constant <{ ptr, [16 x i8] }> <{ ptr @alloc_7d843728bf4d16111edf7d5771921810, [16 x i8] c"i\00\00\00\00\00\00\00!\05\00\00B\00\00\00" }>, align 8
@alloc_0ef375a3ad611d5d326bb0a0e87c29b8 = private unnamed_addr constant <{ [132 x i8] }> <{ [132 x i8] c"unsafe precondition(s) violated: slice::as_chunks_unchecked requires `N != 0` and the slice to split exactly into `N`-element chunks" }>, align 1
@alloc_7b0b40b257267a6d829753c9eb3d4ab1 = private unnamed_addr constant <{ ptr, [16 x i8] }> <{ ptr @alloc_7d843728bf4d16111edf7d5771921810, [16 x i8] c"i\00\00\00\00\00\00\00R\0F\00\00%\00\00\00" }>, align 8
@alloc_d3f03b9e9b21b575b3a2fed9191139a5 = private unnamed_addr constant <{ ptr, [16 x i8] }> <{ ptr @alloc_7d843728bf4d16111edf7d5771921810, [16 x i8] c"i\00\00\00\00\00\00\00`\0F\00\006\00\00\00" }>, align 8
@alloc_11195730e5236cfdc15ea13be1c301f9 = private unnamed_addr constant <{ [162 x i8] }> <{ [162 x i8] c"unsafe precondition(s) violated: slice::from_raw_parts requires the pointer to be aligned and non-null, and the total size of the slice not to exceed `isize::MAX`" }>, align 1
@alloc_d685bb4d9a1abf4f5af46d1af0d9ef8a = private unnamed_addr constant <{ [166 x i8] }> <{ [166 x i8] c"unsafe precondition(s) violated: slice::from_raw_parts_mut requires the pointer to be aligned and non-null, and the total size of the slice not to exceed `isize::MAX`" }>, align 1
@alloc_7f0934048e781d8feafd75ef8bf5cd64 = private unnamed_addr constant <{ [106 x i8] }> <{ [106 x i8] c"/nix/store/hahzrgjq3ncgd241r37xm63ydm9xxfp7-rust-mixed/lib/rustlib/src/rust/library/core/src/slice/iter.rs" }>, align 1
@alloc_1daec6da96277ea3a68e8e91b870bb85 = private unnamed_addr constant <{ ptr, [16 x i8] }> <{ ptr @alloc_7f0934048e781d8feafd75ef8bf5cd64, [16 x i8] c"j\00\00\00\00\00\00\00 \09\00\00(\00\00\00" }>, align 8
@alloc_c879b920e8854eb53ead23b1bd948b77 = private unnamed_addr constant <{ [107 x i8] }> <{ [107 x i8] c"/nix/store/hahzrgjq3ncgd241r37xm63ydm9xxfp7-rust-mixed/lib/rustlib/src/rust/library/core/src/slice/index.rs" }>, align 1
@alloc_ffa744ba3383c2926c1004bae723738a = private unnamed_addr constant <{ ptr, [16 x i8] }> <{ ptr @alloc_c879b920e8854eb53ead23b1bd948b77, [16 x i8] c"k\00\00\00\00\00\00\00S\03\00\002\00\00\00" }>, align 8
@alloc_3cee366dba514cb0c18c40b06fd3b2da = private unnamed_addr constant <{ ptr, [16 x i8] }> <{ ptr @alloc_c879b920e8854eb53ead23b1bd948b77, [16 x i8] c"k\00\00\00\00\00\00\00L\03\00\004\00\00\00" }>, align 8
@alloc_989a063590c196fd6d3380034ff016db = private unnamed_addr constant <{ [108 x i8] }> <{ [108 x i8] c"/nix/store/hahzrgjq3ncgd241r37xm63ydm9xxfp7-rust-mixed/lib/rustlib/src/rust/library/core/src/slice/memchr.rs" }>, align 1
@alloc_e468df286ae29d94cc1abcc60a58d9b2 = private unnamed_addr constant <{ ptr, [16 x i8] }> <{ ptr @alloc_989a063590c196fd6d3380034ff016db, [16 x i8] c"l\00\00\00\00\00\00\00)\00\00\00\0C\00\00\00" }>, align 8
@alloc_6c5b35390ec72a1d8429c4c7b102f354 = private unnamed_addr constant <{ ptr, [16 x i8] }> <{ ptr @alloc_989a063590c196fd6d3380034ff016db, [16 x i8] c"l\00\00\00\00\00\00\00-\00\00\00\09\00\00\00" }>, align 8
@alloc_4bbfdd898298471f08a38e188ddbe855 = private unnamed_addr constant <{ ptr, [16 x i8] }> <{ ptr @alloc_989a063590c196fd6d3380034ff016db, [16 x i8] c"l\00\00\00\00\00\00\00\1C\00\00\00\15\00\00\00" }>, align 8
@vtable.0 = private constant <{ [24 x i8], ptr }> <{ [24 x i8] c"\00\00\00\00\00\00\00\00\00\00\00\00\00\00\00\00\01\00\00\00\00\00\00\00", ptr @"_ZN53_$LT$core..fmt..Error$u20$as$u20$core..fmt..Debug$GT$3fmt17h20bd182c5c54c60eE" }>, align 8, !dbg !0
@alloc_00ae4b301f7fab8ac9617c03fcbd7274 = private unnamed_addr constant <{ [43 x i8] }> <{ [43 x i8] c"called `Result::unwrap()` on an `Err` value" }>, align 1
@vtable.1 = private constant <{ [24 x i8], ptr }> <{ [24 x i8] c"\00\00\00\00\00\00\00\00\00\00\00\00\00\00\00\00\01\00\00\00\00\00\00\00", ptr @"_ZN69_$LT$core..alloc..layout..LayoutError$u20$as$u20$core..fmt..Debug$GT$3fmt17hae95477830e486b2E" }>, align 8, !dbg !16
@vtable.2 = private constant <{ [24 x i8], ptr }> <{ [24 x i8] c"\00\00\00\00\00\00\00\00\08\00\00\00\00\00\00\00\08\00\00\00\00\00\00\00", ptr @"_ZN42_$LT$$RF$T$u20$as$u20$core..fmt..Debug$GT$3fmt17hb01e2dcb36eedd7cE" }>, align 8, !dbg !27
@alloc_763310d78c99c2c1ad3f8a9821e942f3 = private unnamed_addr constant <{ [61 x i8] }> <{ [61 x i8] c"is_nonoverlapping: `size_of::<T>() * count` overflows a usize" }>, align 1
@alloc_4e46ae026644514d12bbae22164d73f9 = private unnamed_addr constant <{ [105 x i8] }> <{ [105 x i8] c"/nix/store/hahzrgjq3ncgd241r37xm63ydm9xxfp7-rust-mixed/lib/rustlib/src/rust/library/core/src/ub_checks.rs" }>, align 1
@alloc_5e69183382d227f934d9b2ef3c182205 = private unnamed_addr constant <{ ptr, [16 x i8] }> <{ ptr @alloc_4e46ae026644514d12bbae22164d73f9, [16 x i8] c"i\00\00\00\00\00\00\00\86\00\00\006\00\00\00" }>, align 8
@alloc_99ac8a81a24cac863217ce4a5cbfabea = private unnamed_addr constant <{ [5 x i8] }> <{ [5 x i8] c"Error" }>, align 1
@alloc_50d1422a5940a2b883b94c395ee0d275 = private unnamed_addr constant <{ [113 x i8] }> <{ [113 x i8] c"/nix/store/hahzrgjq3ncgd241r37xm63ydm9xxfp7-rust-mixed/lib/rustlib/src/rust/library/core/src/iter/traits/accum.rs" }>, align 1
@alloc_94ac45f841eeb3b83140452cd3cd917d = private unnamed_addr constant <{ ptr, [16 x i8] }> <{ ptr @alloc_50d1422a5940a2b883b94c395ee0d275, [16 x i8] c"q\00\00\00\00\00\00\00\95\00\00\00\01\00\00\00" }>, align 8
@alloc_8e685ef482aec04a2d7a8ed5ef1228a3 = private unnamed_addr constant <{ [9 x i8] }> <{ [9 x i8] c"Utf8Error" }>, align 1
@alloc_f34017a1538f19bf68b6d6294eec0bb3 = private unnamed_addr constant <{ [11 x i8] }> <{ [11 x i8] c"valid_up_to" }>, align 1
@vtable.3 = private constant <{ [24 x i8], ptr }> <{ [24 x i8] c"\00\00\00\00\00\00\00\00\08\00\00\00\00\00\00\00\08\00\00\00\00\00\00\00", ptr @"_ZN4core3fmt3num52_$LT$impl$u20$core..fmt..Debug$u20$for$u20$usize$GT$3fmt17h8901250f82f506b0E" }>, align 8, !dbg !51
@alloc_91eca80c47235190e5fbed3d6d8be36c = private unnamed_addr constant <{ [9 x i8] }> <{ [9 x i8] c"error_len" }>, align 1
@alloc_37d2e53432a03a1f90b3e7253015eaf9 = private unnamed_addr constant <{ [4 x i8] }> <{ [4 x i8] c"None" }>, align 1
@alloc_9535bf4c204f3eb9b19ec2c83e446e52 = private unnamed_addr constant <{ [4 x i8] }> <{ [4 x i8] c"Some" }>, align 1
@vtable.4 = private constant <{ [24 x i8], ptr }> <{ [24 x i8] c"\00\00\00\00\00\00\00\00\08\00\00\00\00\00\00\00\08\00\00\00\00\00\00\00", ptr @"_ZN42_$LT$$RF$T$u20$as$u20$core..fmt..Debug$GT$3fmt17h54ac28b3a129e867E" }>, align 8, !dbg !59
@alloc_914b2c69d7eca30497b9feaf15ac92f1 = private unnamed_addr constant <{ [1 x i8] }> zeroinitializer, align 1
@alloc_477d6fd19596379e27b9bd4358550877 = private unnamed_addr constant <{ [11 x i8] }> <{ [11 x i8] c"LayoutError" }>, align 1
@vtable.5 = private constant <{ ptr, [16 x i8], ptr, ptr, ptr }> <{ ptr @"_ZN4core3ptr42drop_in_place$LT$alloc..string..String$GT$17h31e63b34b99b1b14E", [16 x i8] c"\18\00\00\00\00\00\00\00\08\00\00\00\00\00\00\00", ptr @"_ZN58_$LT$alloc..string..String$u20$as$u20$core..fmt..Write$GT$9write_str17h6e6ff1aa33bbb4faE", ptr @"_ZN58_$LT$alloc..string..String$u20$as$u20$core..fmt..Write$GT$10write_char17h0c4aaed91e329fa8E", ptr @_ZN4core3fmt5Write9write_fmt17h17a6868f9c748f56E }>, align 8, !dbg !68
@alloc_e96fb6e25c55edb0aec8b24d111f5d7f = private unnamed_addr constant <{ [101 x i8] }> <{ [101 x i8] c"unsafe precondition(s) violated: slice::get_unchecked_mut requires that the index is within the slice" }>, align 1
@alloc_3f3fff85a6f5968306bca63b270d353f = private unnamed_addr constant <{ [104 x i8] }> <{ [104 x i8] c"/nix/store/hahzrgjq3ncgd241r37xm63ydm9xxfp7-rust-mixed/lib/rustlib/src/rust/library/core/src/str/iter.rs" }>, align 1
@alloc_ecd8f61dc9800309a27d18ff5093cd34 = private unnamed_addr constant <{ ptr, [16 x i8] }> <{ ptr @alloc_3f3fff85a6f5968306bca63b270d353f, [16 x i8] c"h\00\00\00\00\00\00\00i\00\00\00\0A\00\00\00" }>, align 8
@alloc_1aa971d962b1dc94cbc372b55496a1bd = private unnamed_addr constant <{ ptr, [16 x i8] }> <{ ptr @alloc_3f3fff85a6f5968306bca63b270d353f, [16 x i8] c"h\00\00\00\00\00\00\00\C0\00\00\00&\00\00\00" }>, align 8
@alloc_a65110618077034d15ace85ff0e4cec7 = private unnamed_addr constant <{ ptr, [16 x i8] }> <{ ptr @alloc_3f3fff85a6f5968306bca63b270d353f, [16 x i8] c"h\00\00\00\00\00\00\00\C0\00\00\00\11\00\00\00" }>, align 8
@alloc_7c580b658250fa2caf9dba95656e9fea = private unnamed_addr constant <{ [107 x i8] }> <{ [107 x i8] c"/nix/store/hahzrgjq3ncgd241r37xm63ydm9xxfp7-rust-mixed/lib/rustlib/src/rust/library/core/src/char/decode.rs" }>, align 1
@alloc_d91ec9bed56fa96a16a893dd1a70684e = private unnamed_addr constant <{ ptr, [16 x i8] }> <{ ptr @alloc_7c580b658250fa2caf9dba95656e9fea, [16 x i8] c"k\00\00\00\00\00\00\00E\00\00\00\15\00\00\00" }>, align 8
@alloc_d791eaf358ed821941e2d4cfd804d89b = private unnamed_addr constant <{ [16 x i8] }> <{ [16 x i8] c"\01\00\00\00\00\00\00\00\00\00\00\00\00\00\00\00" }>, align 8
@alloc_2fb5b595c02e90d046a1dffece948868 = private unnamed_addr constant <{ ptr, [16 x i8] }> <{ ptr @alloc_7c580b658250fa2caf9dba95656e9fea, [16 x i8] c"k\00\00\00\00\00\00\00f\00\00\00\17\00\00\00" }>, align 8
@alloc_e59db0cc494922884add3474fe7ca357 = private unnamed_addr constant <{ ptr, [16 x i8] }> <{ ptr @alloc_7c580b658250fa2caf9dba95656e9fea, [16 x i8] c"k\00\00\00\00\00\00\00f\00\00\00\13\00\00\00" }>, align 8
@alloc_31365cfefba383c4d2bf6b6a04cc10aa = private unnamed_addr constant <{ [17 x i8] }> <{ [17 x i8] c"capacity overflow" }>, align 1
@alloc_11d257f5ed6cc7fc38feaa801053bac6 = private unnamed_addr constant <{ ptr, [8 x i8] }> <{ ptr @alloc_31365cfefba383c4d2bf6b6a04cc10aa, [8 x i8] c"\11\00\00\00\00\00\00\00" }>, align 8
@alloc_33682dd3d4b898c7538132dc0c143f74 = private unnamed_addr constant <{ [56 x i8] }> <{ [56 x i8] c"`len` must be smaller than or equal to `self.capacity()`" }>, align 1
@alloc_dc2afad2f62918e2eed91adbf0bed9ff = private unnamed_addr constant <{ ptr, [8 x i8] }> <{ ptr @alloc_33682dd3d4b898c7538132dc0c143f74, [8 x i8] c"8\00\00\00\00\00\00\00" }>, align 8
@alloc_d27d7016dcb65398246b53c2661df55c = private unnamed_addr constant <{ [104 x i8] }> <{ [104 x i8] c"/nix/store/hahzrgjq3ncgd241r37xm63ydm9xxfp7-rust-mixed/lib/rustlib/src/rust/library/alloc/src/raw_vec.rs" }>, align 1
@alloc_7ebc97ee82ef8190ac95da0d9c6f9d43 = private unnamed_addr constant <{ ptr, [16 x i8] }> <{ ptr @alloc_d27d7016dcb65398246b53c2661df55c, [16 x i8] c"h\00\00\00\00\00\00\00\E9\00\00\00\09\00\00\00" }>, align 8
@alloc_52f6123897970d51878a92e700db4fa9 = private unnamed_addr constant <{ ptr, [16 x i8] }> <{ ptr @alloc_d27d7016dcb65398246b53c2661df55c, [16 x i8] c"h\00\00\00\00\00\00\00\E0\01\00\00L\00\00\00" }>, align 8
@alloc_5c7a1386658d70e296b7c0767179e38d = private unnamed_addr constant <{ ptr, [16 x i8] }> <{ ptr @alloc_d27d7016dcb65398246b53c2661df55c, [16 x i8] c"h\00\00\00\00\00\00\00\CD\01\00\003\00\00\00" }>, align 8
@alloc_90c395786d9559872c9bc56c3e35fbb8 = private unnamed_addr constant <{ ptr, [16 x i8] }> <{ ptr @alloc_d27d7016dcb65398246b53c2661df55c, [16 x i8] c"h\00\00\00\00\00\00\00\13\02\00\00 \00\00\00" }>, align 8
@alloc_867b71d642822fe06cc43eb7dbd61cbd = private unnamed_addr constant <{ ptr, [16 x i8] }> <{ ptr @alloc_d27d7016dcb65398246b53c2661df55c, [16 x i8] c"h\00\00\00\00\00\00\00(\02\00\00\11\00\00\00" }>, align 8
@alloc_600ccc83711dc678007edb121e7ecdc6 = private unnamed_addr constant <{ ptr, [16 x i8] }> <{ ptr @alloc_d27d7016dcb65398246b53c2661df55c, [16 x i8] c"h\00\00\00\00\00\00\00E\02\00\00\0D\00\00\00" }>, align 8
@alloc_c99632408c318731a6463c8d43d5f795 = private unnamed_addr constant <{ ptr, [16 x i8] }> <{ ptr @alloc_d27d7016dcb65398246b53c2661df55c, [16 x i8] c"h\00\00\00\00\00\00\00A\02\00\00\0D\00\00\00" }>, align 8
@alloc_f61de39dd8c0d6ce4a7ac898dcc11c4d = private unnamed_addr constant <{ ptr, [16 x i8] }> <{ ptr @alloc_d27d7016dcb65398246b53c2661df55c, [16 x i8] c"h\00\00\00\00\00\00\00]\02\00\00\0D\00\00\00" }>, align 8
@alloc_40b28a94c379c596f1ea303094bfc857 = private unnamed_addr constant <{ ptr, [16 x i8] }> <{ ptr @alloc_d27d7016dcb65398246b53c2661df55c, [16 x i8] c"h\00\00\00\00\00\00\00Y\02\00\00\0D\00\00\00" }>, align 8
@alloc_f618e816ca814de4958218055ad99397 = private unnamed_addr constant <{ [32 x i8] }> <{ [32 x i8] c"assertion failed: additional > 0" }>, align 1
@alloc_c435383a1286f4112d78babaafacb720 = private unnamed_addr constant <{ ptr, [16 x i8] }> <{ ptr @alloc_d27d7016dcb65398246b53c2661df55c, [16 x i8] c"h\00\00\00\00\00\00\00\80\02\00\00\09\00\00\00" }>, align 8
@alloc_7e2827044a0a1ea97ee85728939b70ec = private unnamed_addr constant <{ ptr, [16 x i8] }> <{ ptr @alloc_d27d7016dcb65398246b53c2661df55c, [16 x i8] c"h\00\00\00\00\00\00\00\85\02\00\00)\00\00\00" }>, align 8
@alloc_6efbafbb9ca60d10c6c657c9e1f5fb7e = private unnamed_addr constant <{ ptr, [16 x i8] }> <{ ptr @alloc_d27d7016dcb65398246b53c2661df55c, [16 x i8] c"h\00\00\00\00\00\00\00\8D\02\00\00\1C\00\00\00" }>, align 8
@alloc_7dd820fc2353d6e78dcc35dcb96fb34a = private unnamed_addr constant <{ ptr, [16 x i8] }> <{ ptr @alloc_d27d7016dcb65398246b53c2661df55c, [16 x i8] c"h\00\00\00\00\00\00\00\92\02\00\00\13\00\00\00" }>, align 8
@alloc_5b0bab6b8a576f0da6ed67e1e199ab81 = private unnamed_addr constant <{ ptr, [16 x i8] }> <{ ptr @alloc_d27d7016dcb65398246b53c2661df55c, [16 x i8] c"h\00\00\00\00\00\00\00\90\02\00\00\1A\00\00\00" }>, align 8
@alloc_cec94f4f583d594d9fc50f7573eb8288 = private unnamed_addr constant <{ ptr, [16 x i8] }> <{ ptr @alloc_d27d7016dcb65398246b53c2661df55c, [16 x i8] c"h\00\00\00\00\00\00\00\89\02\00\00\1C\00\00\00" }>, align 8
@alloc_93a1f017e54dc45d40059c12ee2514a2 = private unnamed_addr constant <{ ptr, [16 x i8] }> <{ ptr @alloc_d27d7016dcb65398246b53c2661df55c, [16 x i8] c"h\00\00\00\00\00\00\00\A2\02\00\00)\00\00\00" }>, align 8
@alloc_c0f63f01bf777184241d983e099327d8 = private unnamed_addr constant <{ ptr, [16 x i8] }> <{ ptr @alloc_d27d7016dcb65398246b53c2661df55c, [16 x i8] c"h\00\00\00\00\00\00\00\A8\02\00\00\13\00\00\00" }>, align 8
@alloc_23a3d4744acd471a3c8dbf46cf7661a4 = private unnamed_addr constant <{ ptr, [16 x i8] }> <{ ptr @alloc_d27d7016dcb65398246b53c2661df55c, [16 x i8] c"h\00\00\00\00\00\00\00\A6\02\00\00\1A\00\00\00" }>, align 8
@alloc_d665e8656ddee09488f97f267e080a3a = private unnamed_addr constant <{ ptr, [16 x i8] }> <{ ptr @alloc_d27d7016dcb65398246b53c2661df55c, [16 x i8] c"h\00\00\00\00\00\00\00\A5\02\00\00\13\00\00\00" }>, align 8
@alloc_e32c9f49965bcd982ae19540c5ba95f8 = private unnamed_addr constant <{ [36 x i8] }> <{ [36 x i8] c"Tried to shrink to a larger capacity" }>, align 1
@alloc_52f548b6953b1f75b3b067c87f664dd5 = private unnamed_addr constant <{ ptr, [8 x i8] }> <{ ptr @alloc_e32c9f49965bcd982ae19540c5ba95f8, [8 x i8] c"$\00\00\00\00\00\00\00" }>, align 8
@alloc_fc3bfbc8c061027976bfabb82120978f = private unnamed_addr constant <{ ptr, [16 x i8] }> <{ ptr @alloc_d27d7016dcb65398246b53c2661df55c, [16 x i8] c"h\00\00\00\00\00\00\00\B3\02\00\00\09\00\00\00" }>, align 8
@alloc_2888ebeadf91c22b7e70ddfd9dba5abd = private unnamed_addr constant <{ ptr, [16 x i8] }> <{ ptr @alloc_d27d7016dcb65398246b53c2661df55c, [16 x i8] c"h\00\00\00\00\00\00\00\D9\02\00\00\11\00\00\00" }>, align 8
@alloc_89bd8666822a16f761fde021cfb2330d = private unnamed_addr constant <{ ptr, [16 x i8] }> <{ ptr @alloc_d27d7016dcb65398246b53c2661df55c, [16 x i8] c"h\00\00\00\00\00\00\00\03\03\00\00\09\00\00\00" }>, align 8
@alloc_8cb20e0422639acf6990b598495f1254 = private unnamed_addr constant <{ ptr, [16 x i8] }> <{ ptr @alloc_d27d7016dcb65398246b53c2661df55c, [16 x i8] c"h\00\00\00\00\00\00\00\06\03\00\00\0D\00\00\00" }>, align 8
@alloc_dcec76c3bb4659c0fab740764cd7475f = private unnamed_addr constant <{ ptr, [16 x i8] }> <{ ptr @alloc_d27d7016dcb65398246b53c2661df55c, [16 x i8] c"h\00\00\00\00\00\00\00\00\03\00\00\05\00\00\00" }>, align 8
@alloc_175bca62bc9ddd286cc0663944a17128 = private unnamed_addr constant <{ ptr, [16 x i8] }> <{ ptr @alloc_d27d7016dcb65398246b53c2661df55c, [16 x i8] c"h\00\00\00\00\00\00\00\0D\03\00\00N\00\00\00" }>, align 8
@alloc_f5ca9184f677385d2f0972463cdac9ea = private unnamed_addr constant <{ ptr, [16 x i8] }> <{ ptr @alloc_d27d7016dcb65398246b53c2661df55c, [16 x i8] c"h\00\00\00\00\00\00\00'\03\00\00\1E\00\00\00" }>, align 8
@alloc_a2607a9f56caecc8b029e45eefb4308e = private unnamed_addr constant <{ ptr, [16 x i8] }> <{ ptr @alloc_d27d7016dcb65398246b53c2661df55c, [16 x i8] c"h\00\00\00\00\00\00\00/\03\00\00W\00\00\00" }>, align 8
@__rust_no_alloc_shim_is_unstable = external dso_local global i8
@alloc_21e181c3100359566694da81ad3a6b42 = private unnamed_addr constant <{ [102 x i8] }> <{ [102 x i8] c"/nix/store/hahzrgjq3ncgd241r37xm63ydm9xxfp7-rust-mixed/lib/rustlib/src/rust/library/alloc/src/alloc.rs" }>, align 1
@alloc_dde264d245f0a2a468c806470ebb5456 = private unnamed_addr constant <{ ptr, [16 x i8] }> <{ ptr @alloc_21e181c3100359566694da81ad3a6b42, [16 x i8] c"f\00\00\00\00\00\00\00\C1\00\00\00\1B\00\00\00" }>, align 8
@alloc_7e80d81941cf5c819e3db4cff23967f9 = private unnamed_addr constant <{ [72 x i8] }> <{ [72 x i8] c"`new_layout.size()` must be greater than or equal to `old_layout.size()`" }>, align 1
@alloc_04056f6d76887c0653320aca2f1cbe49 = private unnamed_addr constant <{ ptr, [8 x i8] }> <{ ptr @alloc_7e80d81941cf5c819e3db4cff23967f9, [8 x i8] c"H\00\00\00\00\00\00\00" }>, align 8
@alloc_f7e097dcbfe9543a6530595869b765eb = private unnamed_addr constant <{ ptr, [16 x i8] }> <{ ptr @alloc_21e181c3100359566694da81ad3a6b42, [16 x i8] c"f\00\00\00\00\00\00\00\D1\00\00\00\09\00\00\00" }>, align 8
@alloc_46765a78bfce89bba8b56fcfb1141a33 = private unnamed_addr constant <{ ptr, [16 x i8] }> <{ ptr @alloc_21e181c3100359566694da81ad3a6b42, [16 x i8] c"f\00\00\00\00\00\00\00\EF\00\00\00\1F\00\00\00" }>, align 8
@alloc_3cac7365d6fc5872bb051806abdbbde3 = private unnamed_addr constant <{ ptr, [16 x i8] }> <{ ptr @alloc_21e181c3100359566694da81ad3a6b42, [16 x i8] c"f\00\00\00\00\00\00\00\DF\00\00\00\11\00\00\00" }>, align 8
@alloc_28683999e6cbd30a51f01c03e9bf8994 = private unnamed_addr constant <{ ptr, [16 x i8] }> <{ ptr @alloc_21e181c3100359566694da81ad3a6b42, [16 x i8] c"f\00\00\00\00\00\00\00\E4\00\00\00:\00\00\00" }>, align 8
@alloc_aae8d81914a7812d593250f2e6c9ad12 = private unnamed_addr constant <{ ptr, [16 x i8] }> <{ ptr @alloc_21e181c3100359566694da81ad3a6b42, [16 x i8] c"f\00\00\00\00\00\00\00\E2\00\00\00\1B\00\00\00" }>, align 8
@alloc_c18aec2f64791555f5b3394d1fad7c20 = private unnamed_addr constant <{ [72 x i8] }> <{ [72 x i8] c"`new_layout.size()` must be smaller than or equal to `old_layout.size()`" }>, align 1
@alloc_1020994b51d9ceb7568ac48c79478bfe = private unnamed_addr constant <{ ptr, [8 x i8] }> <{ ptr @alloc_c18aec2f64791555f5b3394d1fad7c20, [8 x i8] c"H\00\00\00\00\00\00\00" }>, align 8
@alloc_1c21d73e21956617058bd8f91fe5fcbe = private unnamed_addr constant <{ ptr, [16 x i8] }> <{ ptr @alloc_21e181c3100359566694da81ad3a6b42, [16 x i8] c"f\00\00\00\00\00\00\001\01\00\00\09\00\00\00" }>, align 8
@alloc_29ea7ae903dd0695b7b7eeb620655852 = private unnamed_addr constant <{ ptr, [16 x i8] }> <{ ptr @alloc_21e181c3100359566694da81ad3a6b42, [16 x i8] c"f\00\00\00\00\00\00\00M\01\00\00\1F\00\00\00" }>, align 8
@alloc_efff60fa8c638150cc0c017becc55b0d = private unnamed_addr constant <{ ptr, [16 x i8] }> <{ ptr @alloc_21e181c3100359566694da81ad3a6b42, [16 x i8] c"f\00\00\00\00\00\00\00@\01\00\00\11\00\00\00" }>, align 8
@alloc_60978929e2b2f89f214a9dee9aae7ea1 = private unnamed_addr constant <{ ptr, [16 x i8] }> <{ ptr @alloc_21e181c3100359566694da81ad3a6b42, [16 x i8] c"f\00\00\00\00\00\00\00C\01\00\00\1B\00\00\00" }>, align 8
@alloc_afc2a81fe13a0b3a87a4890cf54edc49 = private unnamed_addr constant <{ [17 x i8] }> <{ [17 x i8] c"allocation failed" }>, align 1
@alloc_6baf420c0410c6f30b16cb34b783a44f = private unnamed_addr constant <{ ptr, [8 x i8] }> <{ ptr @alloc_afc2a81fe13a0b3a87a4890cf54edc49, [8 x i8] c"\11\00\00\00\00\00\00\00" }>, align 8
@alloc_d8ee81cc72e45807bfff68229bba85f1 = private unnamed_addr constant <{ ptr, [16 x i8] }> <{ ptr @alloc_21e181c3100359566694da81ad3a6b42, [16 x i8] c"f\00\00\00\00\00\00\00\8D\01\00\00\09\00\00\00" }>, align 8
@__rust_alloc_error_handler_should_panic = external dso_local global i8
@alloc_531b0048d6ed72a56ae658b8fe4d292a = private unnamed_addr constant <{ [21 x i8] }> <{ [21 x i8] c"memory allocation of " }>, align 1
@alloc_e7770b048557af7ef3910860746912e2 = private unnamed_addr constant <{ [13 x i8] }> <{ [13 x i8] c" bytes failed" }>, align 1
@alloc_7c7b93fd305fe7ff1d4a9e5bebdd169b = private unnamed_addr constant <{ ptr, [8 x i8], ptr, [8 x i8] }> <{ ptr @alloc_531b0048d6ed72a56ae658b8fe4d292a, [8 x i8] c"\15\00\00\00\00\00\00\00", ptr @alloc_e7770b048557af7ef3910860746912e2, [8 x i8] c"\0D\00\00\00\00\00\00\00" }>, align 8
@alloc_7dd813c198fcb81e7e182574ce36ec6d = private unnamed_addr constant <{ ptr, [16 x i8] }> <{ ptr @alloc_21e181c3100359566694da81ad3a6b42, [16 x i8] c"f\00\00\00\00\00\00\00\B6\01\00\00\0D\00\00\00" }>, align 8
@alloc_3fc333d2be47ba02b7c7378360afcfe2 = private unnamed_addr constant <{ ptr, [16 x i8] }> <{ ptr @alloc_21e181c3100359566694da81ad3a6b42, [16 x i8] c"f\00\00\00\00\00\00\00\B4\01\00\00\0D\00\00\00" }>, align 8
@alloc_f4dd3f5e20709c2d39d9ccc318b10360 = private unnamed_addr constant <{ [110 x i8] }> <{ [110 x i8] c"/nix/store/hahzrgjq3ncgd241r37xm63ydm9xxfp7-rust-mixed/lib/rustlib/src/rust/library/alloc/src/boxed/convert.rs" }>, align 1
@alloc_30cca34b9ca3bc71253a116c188b9e4c = private unnamed_addr constant <{ ptr, [16 x i8] }> <{ ptr @alloc_f4dd3f5e20709c2d39d9ccc318b10360, [16 x i8] c"n\00\00\00\00\00\00\00R\00\00\00\13\00\00\00" }>, align 8
@alloc_ed59b6ae190f03b7d6e34c32363bc0bf = private unnamed_addr constant <{ ptr, [16 x i8], ptr }> <{ ptr @"_ZN4core3ptr238drop_in_place$LT$alloc..boxed..convert..$LT$impl$u20$core..convert..From$LT$alloc..string..String$GT$$u20$for$u20$alloc..boxed..Box$LT$dyn$u20$core..error..Error$u2b$core..marker..Sync$u2b$core..marker..Send$GT$$GT$..from..StringError$GT$17hdd2efb14eebc5b8bE", [16 x i8] c"\18\00\00\00\00\00\00\00\08\00\00\00\00\00\00\00", ptr @"_ZN256_$LT$alloc..boxed..convert..$LT$impl$u20$core..convert..From$LT$alloc..string..String$GT$$u20$for$u20$alloc..boxed..Box$LT$dyn$u20$core..error..Error$u2b$core..marker..Sync$u2b$core..marker..Send$GT$$GT$..from..StringError$u20$as$u20$core..fmt..Display$GT$3fmt17h4065c6c534685a91E" }>, align 8
@vtable.6 = private constant <{ ptr, [16 x i8], ptr, ptr, ptr, ptr, ptr, ptr, ptr, ptr }> <{ ptr @"_ZN4core3ptr238drop_in_place$LT$alloc..boxed..convert..$LT$impl$u20$core..convert..From$LT$alloc..string..String$GT$$u20$for$u20$alloc..boxed..Box$LT$dyn$u20$core..error..Error$u2b$core..marker..Sync$u2b$core..marker..Send$GT$$GT$..from..StringError$GT$17hdd2efb14eebc5b8bE", [16 x i8] c"\18\00\00\00\00\00\00\00\08\00\00\00\00\00\00\00", ptr @"_ZN254_$LT$alloc..boxed..convert..$LT$impl$u20$core..convert..From$LT$alloc..string..String$GT$$u20$for$u20$alloc..boxed..Box$LT$dyn$u20$core..error..Error$u2b$core..marker..Sync$u2b$core..marker..Send$GT$$GT$..from..StringError$u20$as$u20$core..fmt..Debug$GT$3fmt17hd6e614d15668a76eE", ptr @"_ZN256_$LT$alloc..boxed..convert..$LT$impl$u20$core..convert..From$LT$alloc..string..String$GT$$u20$for$u20$alloc..boxed..Box$LT$dyn$u20$core..error..Error$u2b$core..marker..Sync$u2b$core..marker..Send$GT$$GT$..from..StringError$u20$as$u20$core..fmt..Display$GT$3fmt17h4065c6c534685a91E", ptr @alloc_ed59b6ae190f03b7d6e34c32363bc0bf, ptr @_ZN4core5error5Error6source17h0bdb0b5a76915a11E, ptr @_ZN4core5error5Error7type_id17h3ba4ed2a179b14a4E, ptr @"_ZN256_$LT$alloc..boxed..convert..$LT$impl$u20$core..convert..From$LT$alloc..string..String$GT$$u20$for$u20$alloc..boxed..Box$LT$dyn$u20$core..error..Error$u2b$core..marker..Sync$u2b$core..marker..Send$GT$$GT$..from..StringError$u20$as$u20$core..error..Error$GT$11description17h48c6d84981b3d80cE", ptr @_ZN4core5error5Error5cause17h82cae8f6d2cc9637E, ptr @_ZN4core5error5Error7provide17hf3cab819f04860fdE }>, align 8, !dbg !119
@alloc_cd91605c90130cd85b6914711c13b33e = private unnamed_addr constant <{ [102 x i8] }> <{ [102 x i8] c"/nix/store/hahzrgjq3ncgd241r37xm63ydm9xxfp7-rust-mixed/lib/rustlib/src/rust/library/alloc/src/boxed.rs" }>, align 1
@alloc_251fcef07d5ab66677109f871c020c8b = private unnamed_addr constant <{ ptr, [16 x i8] }> <{ ptr @alloc_cd91605c90130cd85b6914711c13b33e, [16 x i8] c"f\00\00\00\00\00\00\00\10\07\00\00.\00\00\00" }>, align 8
@alloc_a500d906b91607583596fa15e63c2ada = private unnamed_addr constant <{ [40 x i8] }> <{ [40 x i8] c"internal error: entered unreachable code" }>, align 1
@alloc_7112f08c7b295b5f6a78117d80e70907 = private unnamed_addr constant <{ [103 x i8] }> <{ [103 x i8] c"/nix/store/hahzrgjq3ncgd241r37xm63ydm9xxfp7-rust-mixed/lib/rustlib/src/rust/library/alloc/src/borrow.rs" }>, align 1
@alloc_f660fed6470d8fdcc38f89abbae259fb = private unnamed_addr constant <{ ptr, [16 x i8] }> <{ ptr @alloc_7112f08c7b295b5f6a78117d80e70907, [16 x i8] c"g\00\00\00\00\00\00\00\15\01\00\00%\00\00\00" }>, align 8
@alloc_dbd6112801b11838880ab8653fc65e2d = private unnamed_addr constant <{ ptr, [16 x i8] }> <{ ptr @alloc_7112f08c7b295b5f6a78117d80e70907, [16 x i8] c"g\00\00\00\00\00\00\00\D6\01\00\003\00\00\00" }>, align 8
@alloc_504ab2be3c083e9805e5221eba3917a9 = private unnamed_addr constant <{ ptr, [16 x i8] }> <{ ptr @alloc_7112f08c7b295b5f6a78117d80e70907, [16 x i8] c"g\00\00\00\00\00\00\00\E7\01\00\003\00\00\00" }>, align 8
@alloc_48ac04d310206a129588d490519ad8d1 = private unnamed_addr constant <{ [49 x i8] }> <{ [49 x i8] c"key is not properly ordered relative to neighbors" }>, align 1
@alloc_2d176137a8b89209c523717d4f986029 = private unnamed_addr constant <{ ptr, [8 x i8] }> <{ ptr @alloc_48ac04d310206a129588d490519ad8d1, [8 x i8] c"1\00\00\00\00\00\00\00" }>, align 8
@alloc_1ac27a7ad4b1fedc41713a13c30f215d = private unnamed_addr constant <{ [38 x i8] }> <{ [38 x i8] c"assertion failed: edge_idx <= CAPACITY" }>, align 1
@alloc_3c8f52581bc143b157902c1ce433ff22 = private unnamed_addr constant <{ [119 x i8] }> <{ [119 x i8] c"/nix/store/hahzrgjq3ncgd241r37xm63ydm9xxfp7-rust-mixed/lib/rustlib/src/rust/library/alloc/src/collections/btree/node.rs" }>, align 1
@alloc_fdeaf922b78fe0d8a4ddaa1eb03169fa = private unnamed_addr constant <{ ptr, [16 x i8] }> <{ ptr @alloc_3c8f52581bc143b157902c1ce433ff22, [16 x i8] c"w\00\00\00\00\00\00\00\80\03\00\00\05\00\00\00" }>, align 8
@alloc_6914a2a2730bbe9ab0a2ec588ca3bb0f = private unnamed_addr constant <{ ptr, [16 x i8] }> <{ ptr @alloc_3c8f52581bc143b157902c1ce433ff22, [16 x i8] c"w\00\00\00\00\00\00\00\86\03\00\00\0F\00\00\00" }>, align 8
@alloc_d0de19b92850c0368ebf2096fc88d53c = private unnamed_addr constant <{ ptr, [16 x i8] }> <{ ptr @alloc_3c8f52581bc143b157902c1ce433ff22, [16 x i8] c"w\00\00\00\00\00\00\00\86\03\00\00A\00\00\00" }>, align 8
@alloc_57e359cf053e0fa750f69fb57c4d24f1 = private unnamed_addr constant <{ ptr, [16 x i8] }> <{ ptr @alloc_3c8f52581bc143b157902c1ce433ff22, [16 x i8] c"w\00\00\00\00\00\00\00\86\03\00\00@\00\00\00" }>, align 8
@alloc_6fd25ed348c66af91a0e024a68db0dbb = private unnamed_addr constant <{ ptr, [16 x i8] }> <{ ptr @alloc_3c8f52581bc143b157902c1ce433ff22, [16 x i8] c"w\00\00\00\00\00\00\00\86\03\00\005\00\00\00" }>, align 8
@alloc_1c48aaa25881cebb537398237e87da2c = private unnamed_addr constant <{ [24 x i8] }> <{ [24 x i8] c"memory allocation failed" }>, align 1
@alloc_236b52f5c81143245b05b9fdb0db30b7 = private unnamed_addr constant <{ [64 x i8] }> <{ [64 x i8] c" because the computed capacity exceeded the collection's maximum" }>, align 1
@alloc_8743fc3ff085a87cd6d6fd0bc23a3ce4 = private unnamed_addr constant <{ [47 x i8] }> <{ [47 x i8] c" because the memory allocator returned an error" }>, align 1
@alloc_9f74a5c2eec971276fa979f74ab30915 = private unnamed_addr constant <{ [112 x i8] }> <{ [112 x i8] c"/nix/store/hahzrgjq3ncgd241r37xm63ydm9xxfp7-rust-mixed/lib/rustlib/src/rust/library/alloc/src/collections/mod.rs" }>, align 1
@alloc_bbf62262887b8b896beb1704dfc73111 = private unnamed_addr constant <{ ptr, [16 x i8] }> <{ ptr @alloc_9f74a5c2eec971276fa979f74ab30915, [16 x i8] c"p\00\00\00\00\00\00\00\85\00\00\00\09\00\00\00" }>, align 8
@alloc_a34730e5e9c81f41511a865a846f8771 = private unnamed_addr constant <{ [106 x i8] }> <{ [106 x i8] c"/nix/store/hahzrgjq3ncgd241r37xm63ydm9xxfp7-rust-mixed/lib/rustlib/src/rust/library/alloc/src/ffi/c_str.rs" }>, align 1
@alloc_5d2681ff4fbc1370c12be37e64de7262 = private unnamed_addr constant <{ ptr, [16 x i8] }> <{ ptr @alloc_a34730e5e9c81f41511a865a846f8771, [16 x i8] c"j\00\00\00\00\00\00\00\B7\00\00\00\14\00\00\00" }>, align 8
@alloc_afc85ac7fa1fc5f9a417a32db98225bc = private unnamed_addr constant <{ ptr, [16 x i8] }> <{ ptr @alloc_a34730e5e9c81f41511a865a846f8771, [16 x i8] c"j\00\00\00\00\00\00\00\17\01\00\007\00\00\00" }>, align 8
@alloc_11c66dabf7f7feef72599f3946f6dfc4 = private unnamed_addr constant <{ ptr, [16 x i8] }> <{ ptr @alloc_a34730e5e9c81f41511a865a846f8771, [16 x i8] c"j\00\00\00\00\00\00\00\1B\01\00\00\1E\00\00\00" }>, align 8
@alloc_f6e394c6859c56983342eb358e885f0c = private unnamed_addr constant <{ ptr, [16 x i8] }> <{ ptr @alloc_a34730e5e9c81f41511a865a846f8771, [16 x i8] c"j\00\00\00\00\00\00\00\1C\01\00\00\14\00\00\00" }>, align 8
@alloc_9ed1d40f60081ac3c8582d1e71419d75 = private unnamed_addr constant <{ [49 x i8] }> <{ [49 x i8] c"assertion failed: memchr::memchr(0, &v).is_none()" }>, align 1
@alloc_156d5c7c6f69fe34845cc3baa812fa37 = private unnamed_addr constant <{ ptr, [16 x i8] }> <{ ptr @alloc_a34730e5e9c81f41511a865a846f8771, [16 x i8] c"j\00\00\00\00\00\00\00Q\01\00\00\09\00\00\00" }>, align 8
@alloc_0e7eff428019b5753767681608ae6587 = private unnamed_addr constant <{ ptr, [16 x i8] }> <{ ptr @alloc_a34730e5e9c81f41511a865a846f8771, [16 x i8] c"j\00\00\00\00\00\00\00V\01\00\00\0B\00\00\00" }>, align 8
@alloc_781b2bbbd116826056d7a9c10c6889b7 = private unnamed_addr constant <{ ptr, [16 x i8] }> <{ ptr @alloc_a34730e5e9c81f41511a865a846f8771, [16 x i8] c"j\00\00\00\00\00\00\00W\01\00\00\0B\00\00\00" }>, align 8
@alloc_9848efa103523892095f8411b68557c3 = private unnamed_addr constant <{ ptr, [16 x i8] }> <{ ptr @alloc_a34730e5e9c81f41511a865a846f8771, [16 x i8] c"j\00\00\00\00\00\00\00X\01\00\00\19\00\00\00" }>, align 8
@alloc_b81e3863036eb7cddad670d5f49dd48c = private unnamed_addr constant <{ ptr, [16 x i8] }> <{ ptr @alloc_a34730e5e9c81f41511a865a846f8771, [16 x i8] c"j\00\00\00\00\00\00\00\94\01\00\00\17\00\00\00" }>, align 8
@alloc_c8f8d850bafb8c953da39152ff673a10 = private unnamed_addr constant <{ [2 x i8] }> <{ [2 x i8] c"\01\00" }>, align 1
@alloc_0bf25458e8613f0cbeeb109fec892b39 = private unnamed_addr constant <{ ptr, [16 x i8] }> <{ ptr @alloc_a34730e5e9c81f41511a865a846f8771, [16 x i8] c"j\00\00\00\00\00\00\00\F0\01\00\00\09\00\00\00" }>, align 8
@alloc_d6e10e01f54dbc5798f664872daa8769 = private unnamed_addr constant <{ ptr, [16 x i8] }> <{ ptr @alloc_a34730e5e9c81f41511a865a846f8771, [16 x i8] c"j\00\00\00\00\00\00\00s\02\00\00-\00\00\00" }>, align 8
@alloc_d2aec74c294cb6f49efc94f79e2e54ed = private unnamed_addr constant <{ ptr, [16 x i8] }> <{ ptr @alloc_a34730e5e9c81f41511a865a846f8771, [16 x i8] c"j\00\00\00\00\00\00\00s\02\00\00\17\00\00\00" }>, align 8
@alloc_4ca7a4293309f2a594112e5992259be2 = private unnamed_addr constant <{ [63 x i8] }> <{ [63 x i8] c"assertion failed: memchr::memchr(0, &v).unwrap() + 1 == v.len()" }>, align 1
@alloc_09d709bae586d94aaa77cc454a7d298a = private unnamed_addr constant <{ ptr, [16 x i8] }> <{ ptr @alloc_a34730e5e9c81f41511a865a846f8771, [16 x i8] c"j\00\00\00\00\00\00\00s\02\00\00\09\00\00\00" }>, align 8
@alloc_6cdd581df14db01179aebcce3453bd09 = private unnamed_addr constant <{ ptr, [16 x i8] }> <{ ptr @alloc_a34730e5e9c81f41511a865a846f8771, [16 x i8] c"j\00\00\00\00\00\00\00x\02\00\00\19\00\00\00" }>, align 8
@alloc_86d69e9e608dca2a470f1f25dbb1fb03 = private unnamed_addr constant <{ ptr, [16 x i8] }> <{ ptr @alloc_a34730e5e9c81f41511a865a846f8771, [16 x i8] c"j\00\00\00\00\00\00\00\A0\02\00\00\1E\00\00\00" }>, align 8
@alloc_503e3ddfab6ff94d3e7b9f01abf94ee7 = private unnamed_addr constant <{ [45 x i8] }> <{ [45 x i8] c"nul byte found in provided data at position: " }>, align 1
@alloc_577aa44f47f6ef39a87ddb5a9b4451b8 = private unnamed_addr constant <{ ptr, [8 x i8] }> <{ ptr @alloc_503e3ddfab6ff94d3e7b9f01abf94ee7, [8 x i8] c"-\00\00\00\00\00\00\00" }>, align 8
@alloc_aa5194b5890f52a428105d12b66ef167 = private unnamed_addr constant <{ [51 x i8] }> <{ [51 x i8] c"data provided contains an interior nul byte at pos " }>, align 1
@alloc_ff42d28a277982e056a5409725510716 = private unnamed_addr constant <{ ptr, [8 x i8] }> <{ ptr @alloc_aa5194b5890f52a428105d12b66ef167, [8 x i8] c"3\00\00\00\00\00\00\00" }>, align 8
@alloc_3412ac35c3cedf13fa8186649587ae51 = private unnamed_addr constant <{ [35 x i8] }> <{ [35 x i8] c"data provided is not nul terminated" }>, align 1
@alloc_23f759e465b470884cf2ee7ff692a8fa = private unnamed_addr constant <{ ptr, [8 x i8] }> <{ ptr @alloc_3412ac35c3cedf13fa8186649587ae51, [8 x i8] c"#\00\00\00\00\00\00\00" }>, align 8
@alloc_2be04d996cb96ea7cf76b18f168cc936 = private unnamed_addr constant <{ [33 x i8] }> <{ [33 x i8] c"C string contained non-utf8 bytes" }>, align 1
@alloc_aef15d1c7629ae4e01160d230d1515e3 = private unnamed_addr constant <{ ptr, [16 x i8] }> <{ ptr @alloc_a34730e5e9c81f41511a865a846f8771, [16 x i8] c"j\00\00\00\00\00\00\006\04\00\003\00\00\00" }>, align 8
@alloc_62924e1e8b0d672be51647c6040252d9 = private unnamed_addr constant <{ ptr, [16 x i8] }> <{ ptr @alloc_a34730e5e9c81f41511a865a846f8771, [16 x i8] c"j\00\00\00\00\00\00\00<\04\00\00\1A\00\00\00" }>, align 8
@alloc_d4d0b95d03b96c59f7662e0365977680 = private unnamed_addr constant <{ [22 x i8] }> <{ [22 x i8] c"nul byte found in data" }>, align 1
@alloc_333f007011cfcaddbf304140a6ae8139 = private unnamed_addr constant <{ [24 x i8], ptr }> <{ [24 x i8] c"\00\00\00\00\00\00\00\00\10\00\00\00\00\00\00\00\08\00\00\00\00\00\00\00", ptr @"_ZN66_$LT$core..str..error..Utf8Error$u20$as$u20$core..fmt..Display$GT$3fmt17heb4a47b0542153a5E" }>, align 8
@vtable.7 = private constant <{ [24 x i8], ptr, ptr, ptr, ptr, ptr, ptr, ptr, ptr }> <{ [24 x i8] c"\00\00\00\00\00\00\00\00\10\00\00\00\00\00\00\00\08\00\00\00\00\00\00\00", ptr @"_ZN64_$LT$core..str..error..Utf8Error$u20$as$u20$core..fmt..Debug$GT$3fmt17he57a55edfbb947feE", ptr @"_ZN66_$LT$core..str..error..Utf8Error$u20$as$u20$core..fmt..Display$GT$3fmt17heb4a47b0542153a5E", ptr @alloc_333f007011cfcaddbf304140a6ae8139, ptr @_ZN4core5error5Error6source17h81941f4639b1e47dE, ptr @_ZN4core5error5Error7type_id17hf803431a91448a39E, ptr @"_ZN66_$LT$core..str..error..Utf8Error$u20$as$u20$core..error..Error$GT$11description17hfdb6b94179120958E", ptr @_ZN4core5error5Error5cause17hfc560bb7f7dbe947E, ptr @_ZN4core5error5Error7provide17h91b26135a66ff8baE }>, align 8, !dbg !141
@alloc_a439077caaee6bab9af745f1531d72a4 = private unnamed_addr constant <{ [86 x i8] }> <{ [86 x i8] c"a formatting trait implementation returned an error when the underlying stream did not" }>, align 1
@alloc_4dfdfb3c25faeb5b391322104620ef8a = private unnamed_addr constant <{ [100 x i8] }> <{ [100 x i8] c"/nix/store/hahzrgjq3ncgd241r37xm63ydm9xxfp7-rust-mixed/lib/rustlib/src/rust/library/alloc/src/fmt.rs" }>, align 1
@alloc_dccb8b006c854771352df302727257a5 = private unnamed_addr constant <{ ptr, [16 x i8] }> <{ ptr @alloc_4dfdfb3c25faeb5b391322104620ef8a, [16 x i8] c"d\00\00\00\00\00\00\00\8A\02\00\00\0E\00\00\00" }>, align 8
@alloc_1a1fc64ecac873f4b978693c3f83c39d = private unnamed_addr constant <{ [99 x i8] }> <{ [99 x i8] c"/nix/store/hahzrgjq3ncgd241r37xm63ydm9xxfp7-rust-mixed/lib/rustlib/src/rust/library/alloc/src/rc.rs" }>, align 1
@alloc_e9e555dabcea10b1f843fa8f0c99f780 = private unnamed_addr constant <{ ptr, [16 x i8] }> <{ ptr @alloc_1a1fc64ecac873f4b978693c3f83c39d, [16 x i8] c"c\00\00\00\00\00\00\00)\01\00\001\00\00\00" }>, align 8
@alloc_615b28cb4d10e4886844407f3d3341a3 = private unnamed_addr constant <{ [102 x i8] }> <{ [102 x i8] c"/nix/store/hahzrgjq3ncgd241r37xm63ydm9xxfp7-rust-mixed/lib/rustlib/src/rust/library/alloc/src/slice.rs" }>, align 1
@alloc_29284281892bde93e7545e1a18a5f8dc = private unnamed_addr constant <{ ptr, [16 x i8] }> <{ ptr @alloc_615b28cb4d10e4886844407f3d3341a3, [16 x i8] c"f\00\00\00\00\00\00\00\A1\00\00\00\19\00\00\00" }>, align 8
@alloc_1302e1bce89cada18067fac642ba3231 = private unnamed_addr constant <{ ptr, [16 x i8] }> <{ ptr @alloc_615b28cb4d10e4886844407f3d3341a3, [16 x i8] c"f\00\00\00\00\00\00\00m\03\00\00\10\00\00\00" }>, align 8
@alloc_a232d0a15782d0e92e6d58d94c0c62ba = private unnamed_addr constant <{ [100 x i8] }> <{ [100 x i8] c"/nix/store/hahzrgjq3ncgd241r37xm63ydm9xxfp7-rust-mixed/lib/rustlib/src/rust/library/alloc/src/str.rs" }>, align 1
@alloc_c293372f8f30b1fc526359c56aa5c89f = private unnamed_addr constant <{ ptr, [16 x i8] }> <{ ptr @alloc_a232d0a15782d0e92e6d58d94c0c62ba, [16 x i8] c"d\00\00\00\00\00\00\00\C0\00\00\00\0E\00\00\00" }>, align 8
@alloc_92bd1ae6467565f43615e43ac39bf41a = private unnamed_addr constant <{ ptr, [16 x i8] }> <{ ptr @alloc_a232d0a15782d0e92e6d58d94c0c62ba, [16 x i8] c"d\00\00\00\00\00\00\00\8C\01\00\00A\00\00\00" }>, align 8
@alloc_bc07c7a33ae726400a93eb9e81138f66 = private unnamed_addr constant <{ ptr, [16 x i8] }> <{ ptr @alloc_a232d0a15782d0e92e6d58d94c0c62ba, [16 x i8] c"d\00\00\00\00\00\00\00\A3\01\00\00?\00\00\00" }>, align 8
@alloc_3274b17868dcd12126c89c982b6d4c8a = private unnamed_addr constant <{ ptr, [16 x i8] }> <{ ptr @alloc_a232d0a15782d0e92e6d58d94c0c62ba, [16 x i8] c"d\00\00\00\00\00\00\00\A4\01\00\004\00\00\00" }>, align 8
@alloc_ed9af1e4279834b9852d26f8d3d4b8c2 = private unnamed_addr constant <{ ptr, [16 x i8] }> <{ ptr @alloc_a232d0a15782d0e92e6d58d94c0c62ba, [16 x i8] c"d\00\00\00\00\00\00\00\A4\01\00\003\00\00\00" }>, align 8
@alloc_19e04ffb8ff30923e1e2debaf035124d = private unnamed_addr constant <{ [38 x i8] }> <{ [38 x i8] c"assertion failed: '\CE\A3'.len_utf8() == 2" }>, align 1
@alloc_15d0514513d1f32ff678727c0d5776e8 = private unnamed_addr constant <{ ptr, [16 x i8] }> <{ ptr @alloc_a232d0a15782d0e92e6d58d94c0c62ba, [16 x i8] c"d\00\00\00\00\00\00\00\A2\01\00\00\0D\00\00\00" }>, align 8
@alloc_28cedd3a8e0c6f009a156ddd894b61f9 = private unnamed_addr constant <{ ptr, [16 x i8] }> <{ ptr @alloc_a232d0a15782d0e92e6d58d94c0c62ba, [16 x i8] c"d\00\00\00\00\00\00\00\84\02\00\00\13\00\00\00" }>, align 8
@alloc_3fe01a8f0c7681d7141ec2caceee152c = private unnamed_addr constant <{ ptr, [16 x i8] }> <{ ptr @alloc_a232d0a15782d0e92e6d58d94c0c62ba, [16 x i8] c"d\00\00\00\00\00\00\00\A0\02\00\00\09\00\00\00" }>, align 8
@alloc_e48e8a9597ed398ce02259aed66b0df2 = private unnamed_addr constant <{ ptr, [16 x i8] }> <{ ptr @alloc_a232d0a15782d0e92e6d58d94c0c62ba, [16 x i8] c"d\00\00\00\00\00\00\00\9D\02\00\006\00\00\00" }>, align 8
@alloc_e12cbdefc2186a0a49cbe82704556654 = private unnamed_addr constant <{ ptr, [16 x i8] }> <{ ptr @alloc_a232d0a15782d0e92e6d58d94c0c62ba, [16 x i8] c"d\00\00\00\00\00\00\00\9D\02\00\00\0D\00\00\00" }>, align 8
@alloc_7d12abe270608543095c00c24c20eff8 = private unnamed_addr constant <{ ptr, [16 x i8] }> <{ ptr @alloc_a232d0a15782d0e92e6d58d94c0c62ba, [16 x i8] c"d\00\00\00\00\00\00\00\A7\02\00\00\14\00\00\00" }>, align 8
@alloc_66270c0eb24b37d82ccb41e5f655ad61 = private unnamed_addr constant <{ ptr, [16 x i8] }> <{ ptr @alloc_a232d0a15782d0e92e6d58d94c0c62ba, [16 x i8] c"d\00\00\00\00\00\00\00\AF\02\00\00\09\00\00\00" }>, align 8
@alloc_e1d6c52e6efc094399824cc5c4faa274 = private unnamed_addr constant <{ ptr, [16 x i8] }> <{ ptr @alloc_a232d0a15782d0e92e6d58d94c0c62ba, [16 x i8] c"d\00\00\00\00\00\00\00\91\02\00\00\1B\00\00\00" }>, align 8
@alloc_44d8ad110fab633cdaecb51ef75e82a7 = private unnamed_addr constant <{ ptr, [16 x i8] }> <{ ptr @alloc_a232d0a15782d0e92e6d58d94c0c62ba, [16 x i8] c"d\00\00\00\00\00\00\00\91\02\00\00\0D\00\00\00" }>, align 8
@alloc_57d533e027f0d7e891de841e67393521 = private unnamed_addr constant <{ [103 x i8] }> <{ [103 x i8] c"/nix/store/hahzrgjq3ncgd241r37xm63ydm9xxfp7-rust-mixed/lib/rustlib/src/rust/library/alloc/src/string.rs" }>, align 1
@alloc_bfe1800c95e72e5697f38b2dfd7acff2 = private unnamed_addr constant <{ ptr, [16 x i8] }> <{ ptr @alloc_57d533e027f0d7e891de841e67393521, [16 x i8] c"g\00\00\00\00\00\00\00\EA\01\00\00\17\00\00\00" }>, align 8
@alloc_55773bc7650d9b4ca2871ef04250ccf4 = private unnamed_addr constant <{ [3 x i8] }> <{ [3 x i8] c"\EF\BF\BD" }>, align 1
@alloc_084813e4c477ff533b4bda7eee02bed0 = private unnamed_addr constant <{ ptr, [16 x i8] }> <{ ptr @alloc_57d533e027f0d7e891de841e67393521, [16 x i8] c"g\00\00\00\00\00\00\00\81\02\00\00\11\00\00\00" }>, align 8
@alloc_2a70e4b3a45ca4c601ad735ef6b33a99 = private unnamed_addr constant <{ ptr, [16 x i8] }> <{ ptr @alloc_57d533e027f0d7e891de841e67393521, [16 x i8] c"g\00\00\00\00\00\00\00(\03\00\00'\00\00\00" }>, align 8
@alloc_37279426793bee973b1ffc46555e5638 = private unnamed_addr constant <{ ptr, [16 x i8] }> <{ ptr @alloc_57d533e027f0d7e891de841e67393521, [16 x i8] c"g\00\00\00\00\00\00\00N\03\00\00\22\00\00\00" }>, align 8
@alloc_cfe4cbf656be2b6f9e730fd865604915 = private unnamed_addr constant <{ ptr, [16 x i8] }> <{ ptr @alloc_57d533e027f0d7e891de841e67393521, [16 x i8] c"g\00\00\00\00\00\00\00s\03\00\00'\00\00\00" }>, align 8
@alloc_238cb96f85b9d7e10cadcd603f5f3e36 = private unnamed_addr constant <{ ptr, [16 x i8] }> <{ ptr @alloc_57d533e027f0d7e891de841e67393521, [16 x i8] c"g\00\00\00\00\00\00\00\99\03\00\00\22\00\00\00" }>, align 8
@alloc_5f6f00486b3db66e0fcfb99068155af3 = private unnamed_addr constant <{ ptr, [16 x i8] }> <{ ptr @alloc_57d533e027f0d7e891de841e67393521, [16 x i8] c"g\00\00\00\00\00\00\00g\04\00\00\12\00\00\00" }>, align 8
@alloc_eb331bd363aabbd7fe50c17b00db1b63 = private unnamed_addr constant <{ ptr, [16 x i8] }> <{ ptr @alloc_57d533e027f0d7e891de841e67393521, [16 x i8] c"g\00\00\00\00\00\00\00\CB\04\00\00\12\00\00\00" }>, align 8
@alloc_ae56b34ad047abccc1fe4f6306545d3f = private unnamed_addr constant <{ ptr, [16 x i8] }> <{ ptr @alloc_57d533e027f0d7e891de841e67393521, [16 x i8] c"g\00\00\00\00\00\00\00\8D\05\00\00\1B\00\00\00" }>, align 8
@alloc_261264039435881a8b2969e98c3da3d3 = private unnamed_addr constant <{ ptr, [16 x i8] }> <{ ptr @alloc_57d533e027f0d7e891de841e67393521, [16 x i8] c"g\00\00\00\00\00\00\00\8E\05\00\00\1B\00\00\00" }>, align 8
@alloc_9611bc68a938bae1a46be4c541ce042c = private unnamed_addr constant <{ ptr, [16 x i8] }> <{ ptr @alloc_57d533e027f0d7e891de841e67393521, [16 x i8] c"g\00\00\00\00\00\00\00s\06\00\00\1F\00\00\00" }>, align 8
@alloc_f75f43df8b3ea1b7e01ee0bd50b84955 = private unnamed_addr constant <{ [41 x i8] }> <{ [41 x i8] c"assertion failed: new_len <= self.s.len()" }>, align 1
@alloc_0eac978c2a0b868eee1ab188c8627753 = private unnamed_addr constant <{ ptr, [16 x i8] }> <{ ptr @alloc_57d533e027f0d7e891de841e67393521, [16 x i8] c"g\00\00\00\00\00\00\00t\06\00\00\11\00\00\00" }>, align 8
@alloc_2dd14832ef12136d13f9f9c3e468a707 = private unnamed_addr constant <{ ptr, [16 x i8] }> <{ ptr @alloc_57d533e027f0d7e891de841e67393521, [16 x i8] c"g\00\00\00\00\00\00\00\C3\06\00\00\12\00\00\00" }>, align 8
@alloc_67225652672aa7bd26b8efdb02f6545a = private unnamed_addr constant <{ ptr, [16 x i8] }> <{ ptr @alloc_57d533e027f0d7e891de841e67393521, [16 x i8] c"g\00\00\00\00\00\00\00\C6\06\00\00M\00\00\00" }>, align 8
@alloc_bd20691fc8adec093d36c3db10edeb84 = private unnamed_addr constant <{ ptr, [16 x i8] }> <{ ptr @alloc_57d533e027f0d7e891de841e67393521, [16 x i8] c"g\00\00\00\00\00\00\00\C6\06\00\00Y\00\00\00" }>, align 8
@alloc_a9538baca41d2286e1df2d6082a4139a = private unnamed_addr constant <{ ptr, [16 x i8] }> <{ ptr @alloc_57d533e027f0d7e891de841e67393521, [16 x i8] c"g\00\00\00\00\00\00\00\C8\06\00\00\1E\00\00\00" }>, align 8
@alloc_6d4c13210275430bedb64a9bec928024 = private unnamed_addr constant <{ ptr, [16 x i8] }> <{ ptr @alloc_57d533e027f0d7e891de841e67393521, [16 x i8] c"g\00\00\00\00\00\00\00\EA\07\00\00\1E\00\00\00" }>, align 8
@alloc_d8ada33d87f7034e38d41dac689ce480 = private unnamed_addr constant <{ ptr, [16 x i8] }> <{ ptr @alloc_57d533e027f0d7e891de841e67393521, [16 x i8] c"g\00\00\00\00\00\00\00\1E\08\00\00\14\00\00\00" }>, align 8
@alloc_176ebab96aba90174b4232bc9c47a0d3 = private unnamed_addr constant <{ ptr, [16 x i8] }> <{ ptr @alloc_57d533e027f0d7e891de841e67393521, [16 x i8] c"g\00\00\00\00\00\00\009\08\00\00\19\00\00\00" }>, align 8
@alloc_759e2e01d7b3588a0bc62fa5bfed5833 = private unnamed_addr constant <{ ptr, [16 x i8] }> <{ ptr @alloc_57d533e027f0d7e891de841e67393521, [16 x i8] c"g\00\00\00\00\00\00\00=\08\00\00,\00\00\00" }>, align 8
@alloc_b4a16a01cd856e7c4dcc831ea549de66 = private unnamed_addr constant <{ ptr, [16 x i8] }> <{ ptr @alloc_57d533e027f0d7e891de841e67393521, [16 x i8] c"g\00\00\00\00\00\00\00=\08\00\00\0F\00\00\00" }>, align 8
@alloc_ab92493c11d5b21eb87a07b7b9126afe = private unnamed_addr constant <{ ptr, [16 x i8] }> <{ ptr @alloc_57d533e027f0d7e891de841e67393521, [16 x i8] c"g\00\00\00\00\00\00\00E\08\00\00\1E\00\00\00" }>, align 8
@alloc_6fbea5e9c73aa07232d8e93629f5148f = private unnamed_addr constant <{ [36 x i8] }> <{ [36 x i8] c"invalid utf-16: lone surrogate found" }>, align 1
@alloc_8f25c7227a5bf6e813f71dc7dbd57c20 = private unnamed_addr constant <{ [13 x i8] }> <{ [13 x i8] c"invalid utf-8" }>, align 1
@alloc_c9030d29d46859fcf5c8ae281867725c = private unnamed_addr constant <{ [14 x i8] }> <{ [14 x i8] c"invalid utf-16" }>, align 1
@alloc_1ac06a49b23a927d7f574d6fe0595f78 = private unnamed_addr constant <{ ptr, [16 x i8] }> <{ ptr @alloc_57d533e027f0d7e891de841e67393521, [16 x i8] c"g\00\00\00\00\00\00\00\A5\08\00\00 \00\00\00" }>, align 8
@alloc_e68d78b1122174498773fa3fd0dbb2fb = private unnamed_addr constant <{ ptr, [16 x i8] }> <{ ptr @alloc_57d533e027f0d7e891de841e67393521, [16 x i8] c"g\00\00\00\00\00\00\00\AD\08\00\00\12\00\00\00" }>, align 8
@alloc_15c5d354754d7e2685cda16fd1b1c241 = private unnamed_addr constant <{ ptr, [16 x i8] }> <{ ptr @alloc_57d533e027f0d7e891de841e67393521, [16 x i8] c"g\00\00\00\00\00\00\00f\09\00\00\0D\00\00\00" }>, align 8
@alloc_7c803916a094a5a08efe0ee16b3f38af = private unnamed_addr constant <{ [5 x i8] }> <{ [5 x i8] c"Drain" }>, align 1
@vtable.8 = private constant <{ [24 x i8], ptr }> <{ [24 x i8] c"\00\00\00\00\00\00\00\00\10\00\00\00\00\00\00\00\08\00\00\00\00\00\00\00", ptr @"_ZN42_$LT$$RF$T$u20$as$u20$core..fmt..Debug$GT$3fmt17hce3520abf5f196dbE" }>, align 8, !dbg !162
@alloc_8058cc9486e726ef3c3a75c2d37a7eff = private unnamed_addr constant <{ [101 x i8] }> <{ [101 x i8] c"/nix/store/hahzrgjq3ncgd241r37xm63ydm9xxfp7-rust-mixed/lib/rustlib/src/rust/library/alloc/src/sync.rs" }>, align 1
@alloc_0659adea0430e83450adcc76a42e8b50 = private unnamed_addr constant <{ ptr, [16 x i8] }> <{ ptr @alloc_8058cc9486e726ef3c3a75c2d37a7eff, [16 x i8] c"e\00\00\00\00\00\00\00n\01\00\002\00\00\00" }>, align 8
@_ZN5alloc4sync18STATIC_INNER_SLICE17h661ba81b17d2f3ceE = dso_local global <{ [17 x i8], [15 x i8] }> <{ [17 x i8] c"\01\00\00\00\00\00\00\00\01\00\00\00\00\00\00\00\00", [15 x i8] undef }>, align 16, !dbg !175
@alloc_7f242bf8e16f6de690decf6e22f76ded = private unnamed_addr constant <{ [106 x i8] }> <{ [106 x i8] c"/nix/store/hahzrgjq3ncgd241r37xm63ydm9xxfp7-rust-mixed/lib/rustlib/src/rust/library/alloc/src/vec/drain.rs" }>, align 1
@alloc_c70b18d78de667afe02befc61dda8808 = private unnamed_addr constant <{ ptr, [16 x i8] }> <{ ptr @alloc_7f242bf8e16f6de690decf6e22f76ded, [16 x i8] c"j\00\00\00\00\00\00\00\C0\00\00\00,\00\00\00" }>, align 8
@alloc_00c4bc2c43db60dab26d25d7c2e3bd2a = private unnamed_addr constant <{ [44 x i8] }> <{ [44 x i8] c"assertion failed: new_len <= self.capacity()" }>, align 1
@alloc_355fc9e25550a1fdecb26f2d666c2f29 = private unnamed_addr constant <{ [104 x i8] }> <{ [104 x i8] c"/nix/store/hahzrgjq3ncgd241r37xm63ydm9xxfp7-rust-mixed/lib/rustlib/src/rust/library/alloc/src/vec/mod.rs" }>, align 1
@alloc_e8d631727a1005594ce4cdadeb8520ae = private unnamed_addr constant <{ ptr, [16 x i8] }> <{ ptr @alloc_355fc9e25550a1fdecb26f2d666c2f29, [16 x i8] c"h\00\00\00\00\00\00\00b\07\00\00\09\00\00\00" }>, align 8
@alloc_5fc4bcfe6162e3f7dd1ab90daae602fa = private unnamed_addr constant <{ [22 x i8] }> <{ [22 x i8] c"swap_remove index (is " }>, align 1
@alloc_769eecd3f15a8549d24cdee545c7619d = private unnamed_addr constant <{ [22 x i8] }> <{ [22 x i8] c") should be < len (is " }>, align 1
@alloc_9e3f62b0e6490cc45676dc85f910c2d0 = private unnamed_addr constant <{ [1 x i8] }> <{ [1 x i8] c")" }>, align 1
@alloc_503baa8206645801c4d7396accc462a6 = private unnamed_addr constant <{ ptr, [8 x i8], ptr, [8 x i8], ptr, [8 x i8] }> <{ ptr @alloc_5fc4bcfe6162e3f7dd1ab90daae602fa, [8 x i8] c"\16\00\00\00\00\00\00\00", ptr @alloc_769eecd3f15a8549d24cdee545c7619d, [8 x i8] c"\16\00\00\00\00\00\00\00", ptr @alloc_9e3f62b0e6490cc45676dc85f910c2d0, [8 x i8] c"\01\00\00\00\00\00\00\00" }>, align 8
@alloc_f81e62bd7bc140ac77bc0b3edf24c36d = private unnamed_addr constant <{ [20 x i8] }> <{ [20 x i8] c"insertion index (is " }>, align 1
@alloc_73d2a4a6a707d5b622cbb703396dae5d = private unnamed_addr constant <{ [23 x i8] }> <{ [23 x i8] c") should be <= len (is " }>, align 1
@alloc_b612ed5cfc036b9f11e8d618749f21bf = private unnamed_addr constant <{ ptr, [8 x i8], ptr, [8 x i8], ptr, [8 x i8] }> <{ ptr @alloc_f81e62bd7bc140ac77bc0b3edf24c36d, [8 x i8] c"\14\00\00\00\00\00\00\00", ptr @alloc_73d2a4a6a707d5b622cbb703396dae5d, [8 x i8] c"\17\00\00\00\00\00\00\00", ptr @alloc_9e3f62b0e6490cc45676dc85f910c2d0, [8 x i8] c"\01\00\00\00\00\00\00\00" }>, align 8
@alloc_d669053c7caa5cb753c02057860b7ece = private unnamed_addr constant <{ [18 x i8] }> <{ [18 x i8] c"removal index (is " }>, align 1
@alloc_07bff6ac01d535857c62102c0b9448af = private unnamed_addr constant <{ ptr, [8 x i8], ptr, [8 x i8], ptr, [8 x i8] }> <{ ptr @alloc_d669053c7caa5cb753c02057860b7ece, [8 x i8] c"\12\00\00\00\00\00\00\00", ptr @alloc_769eecd3f15a8549d24cdee545c7619d, [8 x i8] c"\16\00\00\00\00\00\00\00", ptr @alloc_9e3f62b0e6490cc45676dc85f910c2d0, [8 x i8] c"\01\00\00\00\00\00\00\00" }>, align 8
@alloc_39a35524e808b870ab98e7f0383e6fd9 = private unnamed_addr constant <{ ptr, [16 x i8] }> <{ ptr @alloc_355fc9e25550a1fdecb26f2d666c2f29, [16 x i8] c"h\00\00\00\00\00\00\00\C6\09\00\00\11\00\00\00" }>, align 8
@alloc_71415033ff45a949340809663942b22b = private unnamed_addr constant <{ ptr, [16 x i8] }> <{ ptr @alloc_355fc9e25550a1fdecb26f2d666c2f29, [16 x i8] c"h\00\00\00\00\00\00\00\C7\09\00\00\11\00\00\00" }>, align 8
@alloc_5dcdb7a39dd825b3bf7596a49bacf0c5 = private unnamed_addr constant <{ ptr, [16 x i8] }> <{ ptr @alloc_355fc9e25550a1fdecb26f2d666c2f29, [16 x i8] c"h\00\00\00\00\00\00\00:\0A\00\00$\00\00\00" }>, align 8
@alloc_8d018a6923b2b772addd51fdae94025f = private unnamed_addr constant <{ ptr, [16 x i8] }> <{ ptr @alloc_355fc9e25550a1fdecb26f2d666c2f29, [16 x i8] c"h\00\00\00\00\00\00\00?\0A\00\00O\00\00\00" }>, align 8
@alloc_f1378387cf0e6437b81cf2ad3c3c7f63 = private unnamed_addr constant <{ ptr, [16 x i8] }> <{ ptr @alloc_355fc9e25550a1fdecb26f2d666c2f29, [16 x i8] c"h\00\00\00\00\00\00\00B\0A\00\00\1B\00\00\00" }>, align 8
@alloc_0a39fd70720444d81558dc462acec7f8 = private unnamed_addr constant <{ [21 x i8] }> <{ [21 x i8] c"`at` split index (is " }>, align 1
@alloc_002e02b507288c370be6dc0bd34bc42a = private unnamed_addr constant <{ ptr, [8 x i8], ptr, [8 x i8], ptr, [8 x i8] }> <{ ptr @alloc_0a39fd70720444d81558dc462acec7f8, [8 x i8] c"\15\00\00\00\00\00\00\00", ptr @alloc_73d2a4a6a707d5b622cbb703396dae5d, [8 x i8] c"\17\00\00\00\00\00\00\00", ptr @alloc_9e3f62b0e6490cc45676dc85f910c2d0, [8 x i8] c"\01\00\00\00\00\00\00\00" }>, align 8
@alloc_a5deeec27c6c510bd4fc6f2dc8c29929 = private unnamed_addr constant <{ ptr, [16 x i8] }> <{ ptr @alloc_355fc9e25550a1fdecb26f2d666c2f29, [16 x i8] c"h\00\00\00\00\00\00\009\0B\00\00\11\00\00\00" }>, align 8

; <core::iter::adapters::map::Map<I,F> as core::iter::traits::iterator::Iterator>::fold
; Function Attrs: noredzone nounwind
define dso_local void @"_ZN102_$LT$core..iter..adapters..map..Map$LT$I$C$F$GT$$u20$as$u20$core..iter..traits..iterator..Iterator$GT$4fold17h003b1cf887d8a7f1E"(ptr align 8 %self, ptr align 8 %g) unnamed_addr #0 !dbg !298 {
start:
  %g.dbg.spill = alloca [8 x i8], align 8
  %init.dbg.spill = alloca [0 x i8], align 1
  %_4 = alloca [24 x i8], align 8
    #dbg_declare(ptr %self, !374, !DIExpression(), !382)
    #dbg_declare(ptr %init.dbg.spill, !375, !DIExpression(), !383)
  store ptr %g, ptr %g.dbg.spill, align 8
    #dbg_declare(ptr %g.dbg.spill, !376, !DIExpression(), !384)
  call void @llvm.memcpy.p0.p0.i64(ptr align 8 %_4, ptr align 8 %self, i64 24, i1 false), !dbg !385
; call core::iter::adapters::map::map_fold
  %_5 = call align 8 ptr @_ZN4core4iter8adapters3map8map_fold17hc2e7bfde55dd6f3bE(ptr align 8 %g) #19, !dbg !386
; call core::iter::traits::iterator::Iterator::fold
  call void @_ZN4core4iter6traits8iterator8Iterator4fold17h0da292ef89c16011E(ptr align 8 %_4, ptr align 8 %_5) #19, !dbg !385
  ret void, !dbg !387
}

; <core::iter::adapters::map::Map<I,F> as core::iter::traits::iterator::Iterator>::fold
; Function Attrs: noredzone nounwind
define dso_local void @"_ZN102_$LT$core..iter..adapters..map..Map$LT$I$C$F$GT$$u20$as$u20$core..iter..traits..iterator..Iterator$GT$4fold17h0479151a0823b3f7E"(ptr align 8 %self, ptr align 8 %g) unnamed_addr #0 !dbg !388 {
start:
  %g.dbg.spill = alloca [8 x i8], align 8
  %init.dbg.spill = alloca [0 x i8], align 1
  %_4 = alloca [16 x i8], align 8
    #dbg_declare(ptr %self, !456, !DIExpression(), !461)
    #dbg_declare(ptr %init.dbg.spill, !457, !DIExpression(), !462)
  store ptr %g, ptr %g.dbg.spill, align 8
    #dbg_declare(ptr %g.dbg.spill, !458, !DIExpression(), !463)
  call void @llvm.memcpy.p0.p0.i64(ptr align 8 %_4, ptr align 8 %self, i64 16, i1 false), !dbg !464
; call core::iter::adapters::map::map_fold
  %_5 = call align 8 ptr @_ZN4core4iter8adapters3map8map_fold17hb832041a4efbc5a4E(ptr align 8 %g) #19, !dbg !465
; call core::iter::traits::iterator::Iterator::fold
  call void @_ZN4core4iter6traits8iterator8Iterator4fold17h3912cac9188d7787E(ptr align 8 %_4, ptr align 8 %_5) #19, !dbg !464
  ret void, !dbg !466
}

; <core::iter::adapters::map::Map<I,F> as core::iter::traits::iterator::Iterator>::fold
; Function Attrs: noredzone nounwind
define dso_local void @"_ZN102_$LT$core..iter..adapters..map..Map$LT$I$C$F$GT$$u20$as$u20$core..iter..traits..iterator..Iterator$GT$4fold17h9531550f4ac50ad4E"(ptr align 8 %self, ptr align 8 %g) unnamed_addr #0 !dbg !467 {
start:
  %g.dbg.spill = alloca [8 x i8], align 8
  %init.dbg.spill = alloca [0 x i8], align 1
  %_4 = alloca [16 x i8], align 8
    #dbg_declare(ptr %self, !496, !DIExpression(), !501)
    #dbg_declare(ptr %init.dbg.spill, !497, !DIExpression(), !502)
  store ptr %g, ptr %g.dbg.spill, align 8
    #dbg_declare(ptr %g.dbg.spill, !498, !DIExpression(), !503)
  call void @llvm.memcpy.p0.p0.i64(ptr align 8 %_4, ptr align 8 %self, i64 16, i1 false), !dbg !504
; call core::iter::adapters::map::map_fold
  %_5 = call align 8 ptr @_ZN4core4iter8adapters3map8map_fold17he407e15938df864bE(ptr align 8 %g) #19, !dbg !505
; call core::iter::traits::iterator::Iterator::fold
  call void @_ZN4core4iter6traits8iterator8Iterator4fold17h12fe053263c9c7d0E(ptr align 8 %_4, ptr align 8 %_5) #19, !dbg !504
  ret void, !dbg !506
}

; <core::iter::adapters::map::Map<I,F> as core::iter::traits::iterator::Iterator>::fold
; Function Attrs: noredzone nounwind
define dso_local i8 @"_ZN102_$LT$core..iter..adapters..map..Map$LT$I$C$F$GT$$u20$as$u20$core..iter..traits..iterator..Iterator$GT$4fold17hbae18a08927bccfcE"(ptr %self.0, ptr %self.1, i8 zeroext %init) unnamed_addr #0 !dbg !507 {
start:
  %g.dbg.spill = alloca [0 x i8], align 1
  %init.dbg.spill = alloca [1 x i8], align 1
  %self.dbg.spill = alloca [16 x i8], align 8
  store ptr %self.0, ptr %self.dbg.spill, align 8
  %0 = getelementptr inbounds i8, ptr %self.dbg.spill, i64 8
  store ptr %self.1, ptr %0, align 8
    #dbg_declare(ptr %self.dbg.spill, !541, !DIExpression(), !548)
  store i8 %init, ptr %init.dbg.spill, align 1
    #dbg_declare(ptr %init.dbg.spill, !542, !DIExpression(), !549)
    #dbg_declare(ptr %g.dbg.spill, !543, !DIExpression(), !550)
; call core::iter::adapters::map::map_fold
  call void @_ZN4core4iter8adapters3map8map_fold17h0debb8688aedadfbE() #19, !dbg !551
; call <core::slice::iter::Iter<T> as core::iter::traits::iterator::Iterator>::fold
  %_0 = call i8 @"_ZN91_$LT$core..slice..iter..Iter$LT$T$GT$$u20$as$u20$core..iter..traits..iterator..Iterator$GT$4fold17ha17c27d0cf9e4d87E"(ptr %self.0, ptr %self.1, i8 zeroext %init) #19, !dbg !552
  ret i8 %_0, !dbg !553
}

; <core::iter::adapters::map::Map<I,F> as core::iter::traits::iterator::Iterator>::fold
; Function Attrs: noredzone nounwind
define dso_local i64 @"_ZN102_$LT$core..iter..adapters..map..Map$LT$I$C$F$GT$$u20$as$u20$core..iter..traits..iterator..Iterator$GT$4fold17hdbff830f5d3b66aaE"(ptr %self.0, ptr %self.1, i64 %init) unnamed_addr #0 !dbg !554 {
start:
  %g.dbg.spill = alloca [0 x i8], align 1
  %init.dbg.spill = alloca [8 x i8], align 8
  %self.dbg.spill = alloca [16 x i8], align 8
  store ptr %self.0, ptr %self.dbg.spill, align 8
  %0 = getelementptr inbounds i8, ptr %self.dbg.spill, i64 8
  store ptr %self.1, ptr %0, align 8
    #dbg_declare(ptr %self.dbg.spill, !586, !DIExpression(), !593)
  store i64 %init, ptr %init.dbg.spill, align 8
    #dbg_declare(ptr %init.dbg.spill, !587, !DIExpression(), !594)
    #dbg_declare(ptr %g.dbg.spill, !588, !DIExpression(), !595)
; call core::iter::adapters::map::map_fold
  call void @_ZN4core4iter8adapters3map8map_fold17he58b8026ff44e7ecE() #19, !dbg !596
; call <core::slice::iter::Iter<T> as core::iter::traits::iterator::Iterator>::fold
  %_0 = call i64 @"_ZN91_$LT$core..slice..iter..Iter$LT$T$GT$$u20$as$u20$core..iter..traits..iterator..Iterator$GT$4fold17h9fbe9567f08afa6bE"(ptr %self.0, ptr %self.1, i64 %init) #19, !dbg !597
  ret i64 %_0, !dbg !598
}

; <core::iter::adapters::map::Map<I,F> as core::iter::traits::iterator::Iterator>::next
; Function Attrs: inlinehint noredzone nounwind
define dso_local { i16, i16 } @"_ZN102_$LT$core..iter..adapters..map..Map$LT$I$C$F$GT$$u20$as$u20$core..iter..traits..iterator..Iterator$GT$4next17h68119ae6bd8b6adcE"(ptr align 8 %self) unnamed_addr #1 !dbg !599 {
start:
  %0 = alloca [4 x i8], align 4
  %1 = alloca [4 x i8], align 4
  %self.dbg.spill = alloca [8 x i8], align 8
  %_2 = alloca [3 x i8], align 1
  store ptr %self, ptr %self.dbg.spill, align 8
    #dbg_declare(ptr %self.dbg.spill, !604, !DIExpression(), !607)
; call <core::iter::adapters::copied::Copied<I> as core::iter::traits::iterator::Iterator>::next
  %2 = call i24 @"_ZN104_$LT$core..iter..adapters..copied..Copied$LT$I$GT$$u20$as$u20$core..iter..traits..iterator..Iterator$GT$4next17h5fa99f22fd232816E"(ptr align 8 %self) #19, !dbg !608
  store i24 %2, ptr %1, align 4, !dbg !608
  call void @llvm.memcpy.p0.p0.i64(ptr align 1 %_2, ptr align 4 %1, i64 3, i1 false), !dbg !608
  %_4 = getelementptr inbounds i8, ptr %self, i64 8, !dbg !609
  call void @llvm.memcpy.p0.p0.i64(ptr align 4 %0, ptr align 1 %_2, i64 3, i1 false), !dbg !608
  %3 = load i24, ptr %0, align 4, !dbg !608
; call core::option::Option<T>::map
  %4 = call { i16, i16 } @"_ZN4core6option15Option$LT$T$GT$3map17h420c33d78b51a426E"(i24 %3, ptr align 1 %_4) #19, !dbg !608
  %_0.0 = extractvalue { i16, i16 } %4, 0, !dbg !608
  %_0.1 = extractvalue { i16, i16 } %4, 1, !dbg !608
  %5 = insertvalue { i16, i16 } poison, i16 %_0.0, 0, !dbg !610
  %6 = insertvalue { i16, i16 } %5, i16 %_0.1, 1, !dbg !610
  ret { i16, i16 } %6, !dbg !610
}

; <core::iter::adapters::map::Map<I,F> as core::iter::traits::iterator::Iterator>::next
; Function Attrs: inlinehint noredzone nounwind
define dso_local { i16, i16 } @"_ZN102_$LT$core..iter..adapters..map..Map$LT$I$C$F$GT$$u20$as$u20$core..iter..traits..iterator..Iterator$GT$4next17hb76c32654efa819eE"(ptr align 8 %self) unnamed_addr #1 !dbg !611 {
start:
  %0 = alloca [4 x i8], align 4
  %1 = alloca [4 x i8], align 4
  %self.dbg.spill = alloca [8 x i8], align 8
  %_2 = alloca [3 x i8], align 1
  store ptr %self, ptr %self.dbg.spill, align 8
    #dbg_declare(ptr %self.dbg.spill, !627, !DIExpression(), !629)
; call <core::iter::adapters::copied::Copied<I> as core::iter::traits::iterator::Iterator>::next
  %2 = call i24 @"_ZN104_$LT$core..iter..adapters..copied..Copied$LT$I$GT$$u20$as$u20$core..iter..traits..iterator..Iterator$GT$4next17h75b0106cbd867343E"(ptr align 8 %self) #19, !dbg !630
  store i24 %2, ptr %1, align 4, !dbg !630
  call void @llvm.memcpy.p0.p0.i64(ptr align 1 %_2, ptr align 4 %1, i64 3, i1 false), !dbg !630
  %_4 = getelementptr inbounds i8, ptr %self, i64 32, !dbg !631
  call void @llvm.memcpy.p0.p0.i64(ptr align 4 %0, ptr align 1 %_2, i64 3, i1 false), !dbg !630
  %3 = load i24, ptr %0, align 4, !dbg !630
; call core::option::Option<T>::map
  %4 = call { i16, i16 } @"_ZN4core6option15Option$LT$T$GT$3map17h6da2db0481086ae8E"(i24 %3, ptr align 1 %_4) #19, !dbg !630
  %_0.0 = extractvalue { i16, i16 } %4, 0, !dbg !630
  %_0.1 = extractvalue { i16, i16 } %4, 1, !dbg !630
  %5 = insertvalue { i16, i16 } poison, i16 %_0.0, 0, !dbg !632
  %6 = insertvalue { i16, i16 } %5, i16 %_0.1, 1, !dbg !632
  ret { i16, i16 } %6, !dbg !632
}

; <core::iter::adapters::map::Map<I,F> as core::iter::traits::iterator::Iterator>::next
; Function Attrs: inlinehint noredzone nounwind
define dso_local { i16, i16 } @"_ZN102_$LT$core..iter..adapters..map..Map$LT$I$C$F$GT$$u20$as$u20$core..iter..traits..iterator..Iterator$GT$4next17hcc9d1d3d9e012ba6E"(ptr align 8 %self) unnamed_addr #1 !dbg !633 {
start:
  %0 = alloca [4 x i8], align 4
  %1 = alloca [4 x i8], align 4
  %self.dbg.spill = alloca [8 x i8], align 8
  %_2 = alloca [3 x i8], align 1
  store ptr %self, ptr %self.dbg.spill, align 8
    #dbg_declare(ptr %self.dbg.spill, !642, !DIExpression(), !643)
; call <core::iter::adapters::copied::Copied<I> as core::iter::traits::iterator::Iterator>::next
  %2 = call i24 @"_ZN104_$LT$core..iter..adapters..copied..Copied$LT$I$GT$$u20$as$u20$core..iter..traits..iterator..Iterator$GT$4next17h75b0106cbd867343E"(ptr align 8 %self) #19, !dbg !644
  store i24 %2, ptr %1, align 4, !dbg !644
  call void @llvm.memcpy.p0.p0.i64(ptr align 1 %_2, ptr align 4 %1, i64 3, i1 false), !dbg !644
  %_4 = getelementptr inbounds i8, ptr %self, i64 32, !dbg !645
  call void @llvm.memcpy.p0.p0.i64(ptr align 4 %0, ptr align 1 %_2, i64 3, i1 false), !dbg !644
  %3 = load i24, ptr %0, align 4, !dbg !644
; call core::option::Option<T>::map
  %4 = call { i16, i16 } @"_ZN4core6option15Option$LT$T$GT$3map17h420c33d78b51a426E"(i24 %3, ptr align 1 %_4) #19, !dbg !644
  %_0.0 = extractvalue { i16, i16 } %4, 0, !dbg !644
  %_0.1 = extractvalue { i16, i16 } %4, 1, !dbg !644
  %5 = insertvalue { i16, i16 } poison, i16 %_0.0, 0, !dbg !646
  %6 = insertvalue { i16, i16 } %5, i16 %_0.1, 1, !dbg !646
  ret { i16, i16 } %6, !dbg !646
}

; <core::iter::adapters::map::Map<I,F> as core::iter::traits::iterator::Iterator>::next
; Function Attrs: inlinehint noredzone nounwind
define dso_local { i16, i16 } @"_ZN102_$LT$core..iter..adapters..map..Map$LT$I$C$F$GT$$u20$as$u20$core..iter..traits..iterator..Iterator$GT$4next17hcece374a8b7cd35fE"(ptr align 8 %self) unnamed_addr #1 !dbg !647 {
start:
  %0 = alloca [4 x i8], align 4
  %1 = alloca [4 x i8], align 4
  %self.dbg.spill = alloca [8 x i8], align 8
  %_2 = alloca [3 x i8], align 1
  store ptr %self, ptr %self.dbg.spill, align 8
    #dbg_declare(ptr %self.dbg.spill, !652, !DIExpression(), !653)
; call <core::iter::adapters::copied::Copied<I> as core::iter::traits::iterator::Iterator>::next
  %2 = call i24 @"_ZN104_$LT$core..iter..adapters..copied..Copied$LT$I$GT$$u20$as$u20$core..iter..traits..iterator..Iterator$GT$4next17h5fa99f22fd232816E"(ptr align 8 %self) #19, !dbg !654
  store i24 %2, ptr %1, align 4, !dbg !654
  call void @llvm.memcpy.p0.p0.i64(ptr align 1 %_2, ptr align 4 %1, i64 3, i1 false), !dbg !654
  %_4 = getelementptr inbounds i8, ptr %self, i64 8, !dbg !655
  call void @llvm.memcpy.p0.p0.i64(ptr align 4 %0, ptr align 1 %_2, i64 3, i1 false), !dbg !654
  %3 = load i24, ptr %0, align 4, !dbg !654
; call core::option::Option<T>::map
  %4 = call { i16, i16 } @"_ZN4core6option15Option$LT$T$GT$3map17h6da2db0481086ae8E"(i24 %3, ptr align 1 %_4) #19, !dbg !654
  %_0.0 = extractvalue { i16, i16 } %4, 0, !dbg !654
  %_0.1 = extractvalue { i16, i16 } %4, 1, !dbg !654
  %5 = insertvalue { i16, i16 } poison, i16 %_0.0, 0, !dbg !656
  %6 = insertvalue { i16, i16 } %5, i16 %_0.1, 1, !dbg !656
  ret { i16, i16 } %6, !dbg !656
}

; <core::iter::adapters::map::Map<I,F> as core::iter::traits::iterator::Iterator>::size_hint
; Function Attrs: inlinehint noredzone nounwind
define dso_local void @"_ZN102_$LT$core..iter..adapters..map..Map$LT$I$C$F$GT$$u20$as$u20$core..iter..traits..iterator..Iterator$GT$9size_hint17h162fd55153b4dc0dE"(ptr sret([24 x i8]) align 8 %_0, ptr align 8 %self) unnamed_addr #1 !dbg !657 {
start:
  %self.dbg.spill = alloca [8 x i8], align 8
  store ptr %self, ptr %self.dbg.spill, align 8
    #dbg_declare(ptr %self.dbg.spill, !677, !DIExpression(), !678)
; call <core::iter::adapters::copied::Copied<I> as core::iter::traits::iterator::Iterator>::size_hint
  call void @"_ZN104_$LT$core..iter..adapters..copied..Copied$LT$I$GT$$u20$as$u20$core..iter..traits..iterator..Iterator$GT$9size_hint17h446c9bbfa4daeae2E"(ptr sret([24 x i8]) align 8 %_0, ptr align 8 %self) #19, !dbg !679
  ret void, !dbg !680
}

; <core::iter::adapters::map::Map<I,F> as core::iter::traits::iterator::Iterator>::size_hint
; Function Attrs: inlinehint noredzone nounwind
define dso_local void @"_ZN102_$LT$core..iter..adapters..map..Map$LT$I$C$F$GT$$u20$as$u20$core..iter..traits..iterator..Iterator$GT$9size_hint17h56381cb01a7560a8E"(ptr sret([24 x i8]) align 8 %_0, ptr align 8 %self) unnamed_addr #1 !dbg !681 {
start:
  %self.dbg.spill = alloca [8 x i8], align 8
  store ptr %self, ptr %self.dbg.spill, align 8
    #dbg_declare(ptr %self.dbg.spill, !686, !DIExpression(), !687)
; call <core::iter::adapters::copied::Copied<I> as core::iter::traits::iterator::Iterator>::size_hint
  call void @"_ZN104_$LT$core..iter..adapters..copied..Copied$LT$I$GT$$u20$as$u20$core..iter..traits..iterator..Iterator$GT$9size_hint17h071f82a4bc31955eE"(ptr sret([24 x i8]) align 8 %_0, ptr align 8 %self) #19, !dbg !688
  ret void, !dbg !689
}

; <core::iter::adapters::map::Map<I,F> as core::iter::traits::iterator::Iterator>::size_hint
; Function Attrs: inlinehint noredzone nounwind
define dso_local void @"_ZN102_$LT$core..iter..adapters..map..Map$LT$I$C$F$GT$$u20$as$u20$core..iter..traits..iterator..Iterator$GT$9size_hint17h7a8fb8088cec46bcE"(ptr sret([24 x i8]) align 8 %_0, ptr align 8 %self) unnamed_addr #1 !dbg !690 {
start:
  %self.dbg.spill = alloca [8 x i8], align 8
  store ptr %self, ptr %self.dbg.spill, align 8
    #dbg_declare(ptr %self.dbg.spill, !695, !DIExpression(), !697)
; call <core::char::decode::DecodeUtf16<I> as core::iter::traits::iterator::Iterator>::size_hint
  call void @"_ZN99_$LT$core..char..decode..DecodeUtf16$LT$I$GT$$u20$as$u20$core..iter..traits..iterator..Iterator$GT$9size_hint17hbea72e21e6a48405E"(ptr sret([24 x i8]) align 8 %_0, ptr align 8 %self) #19, !dbg !698
  ret void, !dbg !699
}

; <core::iter::adapters::map::Map<I,F> as core::iter::traits::iterator::Iterator>::size_hint
; Function Attrs: inlinehint noredzone nounwind
define dso_local void @"_ZN102_$LT$core..iter..adapters..map..Map$LT$I$C$F$GT$$u20$as$u20$core..iter..traits..iterator..Iterator$GT$9size_hint17h872aa59146a7cfa9E"(ptr sret([24 x i8]) align 8 %_0, ptr align 8 %self) unnamed_addr #1 !dbg !700 {
start:
  %self.dbg.spill = alloca [8 x i8], align 8
  store ptr %self, ptr %self.dbg.spill, align 8
    #dbg_declare(ptr %self.dbg.spill, !705, !DIExpression(), !707)
; call <core::char::decode::DecodeUtf16<I> as core::iter::traits::iterator::Iterator>::size_hint
  call void @"_ZN99_$LT$core..char..decode..DecodeUtf16$LT$I$GT$$u20$as$u20$core..iter..traits..iterator..Iterator$GT$9size_hint17h4e794c678f5b34f7E"(ptr sret([24 x i8]) align 8 %_0, ptr align 8 %self) #19, !dbg !708
  ret void, !dbg !709
}

; <core::iter::adapters::map::Map<I,F> as core::iter::traits::iterator::Iterator>::size_hint
; Function Attrs: inlinehint noredzone nounwind
define dso_local void @"_ZN102_$LT$core..iter..adapters..map..Map$LT$I$C$F$GT$$u20$as$u20$core..iter..traits..iterator..Iterator$GT$9size_hint17h93fc57080880152fE"(ptr sret([24 x i8]) align 8 %_0, ptr align 8 %self) unnamed_addr #1 !dbg !710 {
start:
  %self.dbg.spill = alloca [8 x i8], align 8
  store ptr %self, ptr %self.dbg.spill, align 8
    #dbg_declare(ptr %self.dbg.spill, !715, !DIExpression(), !716)
; call <core::iter::adapters::copied::Copied<I> as core::iter::traits::iterator::Iterator>::size_hint
  call void @"_ZN104_$LT$core..iter..adapters..copied..Copied$LT$I$GT$$u20$as$u20$core..iter..traits..iterator..Iterator$GT$9size_hint17h071f82a4bc31955eE"(ptr sret([24 x i8]) align 8 %_0, ptr align 8 %self) #19, !dbg !717
  ret void, !dbg !718
}

; <core::iter::adapters::map::Map<I,F> as core::iter::traits::iterator::Iterator>::size_hint
; Function Attrs: inlinehint noredzone nounwind
define dso_local void @"_ZN102_$LT$core..iter..adapters..map..Map$LT$I$C$F$GT$$u20$as$u20$core..iter..traits..iterator..Iterator$GT$9size_hint17heb596a49b23f6739E"(ptr sret([24 x i8]) align 8 %_0, ptr align 8 %self) unnamed_addr #1 !dbg !719 {
start:
  %self.dbg.spill = alloca [8 x i8], align 8
  store ptr %self, ptr %self.dbg.spill, align 8
    #dbg_declare(ptr %self.dbg.spill, !724, !DIExpression(), !725)
; call <core::iter::adapters::copied::Copied<I> as core::iter::traits::iterator::Iterator>::size_hint
  call void @"_ZN104_$LT$core..iter..adapters..copied..Copied$LT$I$GT$$u20$as$u20$core..iter..traits..iterator..Iterator$GT$9size_hint17h446c9bbfa4daeae2E"(ptr sret([24 x i8]) align 8 %_0, ptr align 8 %self) #19, !dbg !726
  ret void, !dbg !727
}

; <core::iter::adapters::map::Map<I,F> as core::iter::traits::iterator::Iterator>::size_hint
; Function Attrs: inlinehint noredzone nounwind
define dso_local void @"_ZN102_$LT$core..iter..adapters..map..Map$LT$I$C$F$GT$$u20$as$u20$core..iter..traits..iterator..Iterator$GT$9size_hint17hf81945ef99946e86E"(ptr sret([24 x i8]) align 8 %_0, ptr align 8 %self) unnamed_addr #1 !dbg !728 {
start:
  %self.dbg.spill = alloca [8 x i8], align 8
  store ptr %self, ptr %self.dbg.spill, align 8
    #dbg_declare(ptr %self.dbg.spill, !733, !DIExpression(), !735)
; call <core::char::decode::DecodeUtf16<I> as core::iter::traits::iterator::Iterator>::size_hint
  call void @"_ZN99_$LT$core..char..decode..DecodeUtf16$LT$I$GT$$u20$as$u20$core..iter..traits..iterator..Iterator$GT$9size_hint17h4cc36d4bc8345ca0E"(ptr sret([24 x i8]) align 8 %_0, ptr align 8 %self) #19, !dbg !736
  ret void, !dbg !737
}

; <core::slice::iter::ArrayChunks<T,_> as core::iter::traits::iterator::Iterator>::next
; Function Attrs: inlinehint noredzone nounwind
define dso_local align 1 ptr @"_ZN102_$LT$core..slice..iter..ArrayChunks$LT$T$C$_$GT$$u20$as$u20$core..iter..traits..iterator..Iterator$GT$4next17h6e993169ed0301a1E"(ptr align 8 %self) unnamed_addr #1 !dbg !738 {
start:
  %self.dbg.spill = alloca [8 x i8], align 8
  store ptr %self, ptr %self.dbg.spill, align 8
    #dbg_declare(ptr %self.dbg.spill, !755, !DIExpression(), !756)
; call <core::slice::iter::Iter<T> as core::iter::traits::iterator::Iterator>::next
  %_0 = call align 1 ptr @"_ZN91_$LT$core..slice..iter..Iter$LT$T$GT$$u20$as$u20$core..iter..traits..iterator..Iterator$GT$4next17hf7a8722f0f1b4dd7E"(ptr align 8 %self) #19, !dbg !757
  ret ptr %_0, !dbg !758
}

; <core::slice::iter::ArrayChunks<T,_> as core::iter::traits::iterator::Iterator>::size_hint
; Function Attrs: inlinehint noredzone nounwind
define dso_local void @"_ZN102_$LT$core..slice..iter..ArrayChunks$LT$T$C$_$GT$$u20$as$u20$core..iter..traits..iterator..Iterator$GT$9size_hint17h4f47c3f8dfce9377E"(ptr sret([24 x i8]) align 8 %_0, ptr align 8 %self) unnamed_addr #1 !dbg !759 {
start:
  %self.dbg.spill = alloca [8 x i8], align 8
  store ptr %self, ptr %self.dbg.spill, align 8
    #dbg_declare(ptr %self.dbg.spill, !764, !DIExpression(), !765)
; call <core::slice::iter::Iter<T> as core::iter::traits::iterator::Iterator>::size_hint
  call void @"_ZN91_$LT$core..slice..iter..Iter$LT$T$GT$$u20$as$u20$core..iter..traits..iterator..Iterator$GT$9size_hint17h65e994da2a282a9dE"(ptr sret([24 x i8]) align 8 %_0, ptr align 8 %self) #19, !dbg !766
  ret void, !dbg !767
}

; <core::iter::adapters::cloned::Cloned<I> as core::iter::traits::iterator::Iterator>::next
; Function Attrs: noredzone nounwind
define dso_local { i16, i16 } @"_ZN104_$LT$core..iter..adapters..cloned..Cloned$LT$I$GT$$u20$as$u20$core..iter..traits..iterator..Iterator$GT$4next17hff3ac44154215173E"(ptr align 8 %self) unnamed_addr #0 !dbg !768 {
start:
  %self.dbg.spill = alloca [8 x i8], align 8
  store ptr %self, ptr %self.dbg.spill, align 8
    #dbg_declare(ptr %self.dbg.spill, !775, !DIExpression(), !777)
; call <core::slice::iter::Iter<T> as core::iter::traits::iterator::Iterator>::next
  %_2 = call align 2 ptr @"_ZN91_$LT$core..slice..iter..Iter$LT$T$GT$$u20$as$u20$core..iter..traits..iterator..Iterator$GT$4next17h3292520a76dfa431E"(ptr align 8 %self) #19, !dbg !778
; call core::option::Option<&T>::cloned
  %0 = call { i16, i16 } @"_ZN4core6option19Option$LT$$RF$T$GT$6cloned17hffd608ba647f43afE"(ptr align 2 %_2) #19, !dbg !778
  %_0.0 = extractvalue { i16, i16 } %0, 0, !dbg !778
  %_0.1 = extractvalue { i16, i16 } %0, 1, !dbg !778
  %1 = insertvalue { i16, i16 } poison, i16 %_0.0, 0, !dbg !779
  %2 = insertvalue { i16, i16 } %1, i16 %_0.1, 1, !dbg !779
  ret { i16, i16 } %2, !dbg !779
}

; <core::iter::adapters::cloned::Cloned<I> as core::iter::traits::iterator::Iterator>::size_hint
; Function Attrs: noredzone nounwind
define dso_local void @"_ZN104_$LT$core..iter..adapters..cloned..Cloned$LT$I$GT$$u20$as$u20$core..iter..traits..iterator..Iterator$GT$9size_hint17h368b936733322da0E"(ptr sret([24 x i8]) align 8 %_0, ptr align 8 %self) unnamed_addr #0 !dbg !780 {
start:
  %self.dbg.spill = alloca [8 x i8], align 8
  store ptr %self, ptr %self.dbg.spill, align 8
    #dbg_declare(ptr %self.dbg.spill, !785, !DIExpression(), !786)
; call <core::slice::iter::Iter<T> as core::iter::traits::iterator::Iterator>::size_hint
  call void @"_ZN91_$LT$core..slice..iter..Iter$LT$T$GT$$u20$as$u20$core..iter..traits..iterator..Iterator$GT$9size_hint17hcfdc20b34ffd9102E"(ptr sret([24 x i8]) align 8 %_0, ptr align 8 %self) #19, !dbg !787
  ret void, !dbg !788
}

; <core::iter::adapters::copied::Copied<I> as core::iter::traits::iterator::Iterator>::next
; Function Attrs: noredzone nounwind
define dso_local i24 @"_ZN104_$LT$core..iter..adapters..copied..Copied$LT$I$GT$$u20$as$u20$core..iter..traits..iterator..Iterator$GT$4next17h5fa99f22fd232816E"(ptr align 8 %self) unnamed_addr #0 !dbg !789 {
start:
  %0 = alloca [4 x i8], align 4
  %self.dbg.spill = alloca [8 x i8], align 8
  %_0 = alloca [4 x i8], align 1
  store ptr %self, ptr %self.dbg.spill, align 8
    #dbg_declare(ptr %self.dbg.spill, !807, !DIExpression(), !809)
; call <&mut I as core::iter::traits::iterator::Iterator>::next
  %_2 = call align 1 ptr @"_ZN72_$LT$$RF$mut$u20$I$u20$as$u20$core..iter..traits..iterator..Iterator$GT$4next17h01da7c7a3271c7d8E"(ptr align 8 %self) #19, !dbg !810
; call core::option::Option<&T>::copied
  %1 = call i24 @"_ZN4core6option19Option$LT$$RF$T$GT$6copied17h55368225e46eda0aE"(ptr align 1 %_2) #19, !dbg !810
  store i24 %1, ptr %0, align 4, !dbg !810
  call void @llvm.memcpy.p0.p0.i64(ptr align 1 %_0, ptr align 4 %0, i64 3, i1 false), !dbg !810
  %2 = load i24, ptr %_0, align 1, !dbg !811
  ret i24 %2, !dbg !811
}

; <core::iter::adapters::copied::Copied<I> as core::iter::traits::iterator::Iterator>::next
; Function Attrs: noredzone nounwind
define dso_local i24 @"_ZN104_$LT$core..iter..adapters..copied..Copied$LT$I$GT$$u20$as$u20$core..iter..traits..iterator..Iterator$GT$4next17h75b0106cbd867343E"(ptr align 8 %self) unnamed_addr #0 !dbg !812 {
start:
  %0 = alloca [4 x i8], align 4
  %self.dbg.spill = alloca [8 x i8], align 8
  %_0 = alloca [4 x i8], align 1
  store ptr %self, ptr %self.dbg.spill, align 8
    #dbg_declare(ptr %self.dbg.spill, !817, !DIExpression(), !819)
; call <core::slice::iter::ArrayChunks<T,_> as core::iter::traits::iterator::Iterator>::next
  %_2 = call align 1 ptr @"_ZN102_$LT$core..slice..iter..ArrayChunks$LT$T$C$_$GT$$u20$as$u20$core..iter..traits..iterator..Iterator$GT$4next17h6e993169ed0301a1E"(ptr align 8 %self) #19, !dbg !820
; call core::option::Option<&T>::copied
  %1 = call i24 @"_ZN4core6option19Option$LT$$RF$T$GT$6copied17h55368225e46eda0aE"(ptr align 1 %_2) #19, !dbg !820
  store i24 %1, ptr %0, align 4, !dbg !820
  call void @llvm.memcpy.p0.p0.i64(ptr align 1 %_0, ptr align 4 %0, i64 3, i1 false), !dbg !820
  %2 = load i24, ptr %_0, align 1, !dbg !821
  ret i24 %2, !dbg !821
}

; <core::iter::adapters::copied::Copied<I> as core::iter::traits::iterator::Iterator>::size_hint
; Function Attrs: noredzone nounwind
define dso_local void @"_ZN104_$LT$core..iter..adapters..copied..Copied$LT$I$GT$$u20$as$u20$core..iter..traits..iterator..Iterator$GT$9size_hint17h071f82a4bc31955eE"(ptr sret([24 x i8]) align 8 %_0, ptr align 8 %self) unnamed_addr #0 !dbg !822 {
start:
  %self.dbg.spill = alloca [8 x i8], align 8
  store ptr %self, ptr %self.dbg.spill, align 8
    #dbg_declare(ptr %self.dbg.spill, !827, !DIExpression(), !828)
; call <core::slice::iter::ArrayChunks<T,_> as core::iter::traits::iterator::Iterator>::size_hint
  call void @"_ZN102_$LT$core..slice..iter..ArrayChunks$LT$T$C$_$GT$$u20$as$u20$core..iter..traits..iterator..Iterator$GT$9size_hint17h4f47c3f8dfce9377E"(ptr sret([24 x i8]) align 8 %_0, ptr align 8 %self) #19, !dbg !829
  ret void, !dbg !830
}

; <core::iter::adapters::copied::Copied<I> as core::iter::traits::iterator::Iterator>::size_hint
; Function Attrs: noredzone nounwind
define dso_local void @"_ZN104_$LT$core..iter..adapters..copied..Copied$LT$I$GT$$u20$as$u20$core..iter..traits..iterator..Iterator$GT$9size_hint17h446c9bbfa4daeae2E"(ptr sret([24 x i8]) align 8 %_0, ptr align 8 %self) unnamed_addr #0 !dbg !831 {
start:
  %self.dbg.spill = alloca [8 x i8], align 8
  store ptr %self, ptr %self.dbg.spill, align 8
    #dbg_declare(ptr %self.dbg.spill, !836, !DIExpression(), !837)
; call <&mut I as core::iter::traits::iterator::Iterator>::size_hint
  call void @"_ZN72_$LT$$RF$mut$u20$I$u20$as$u20$core..iter..traits..iterator..Iterator$GT$9size_hint17h4a215a4537c6396fE"(ptr sret([24 x i8]) align 8 %_0, ptr align 8 %self) #19, !dbg !838
  ret void, !dbg !839
}

; <core::iter::adapters::GenericShunt<I,R> as core::iter::traits::iterator::Iterator>::fold
; Function Attrs: inlinehint noredzone nounwind
define dso_local void @"_ZN106_$LT$core..iter..adapters..GenericShunt$LT$I$C$R$GT$$u20$as$u20$core..iter..traits..iterator..Iterator$GT$4fold17h0bc16a9aaaea1196E"(ptr align 8 %self, ptr align 8 %fold) unnamed_addr #1 !dbg !840 {
start:
  %fold.dbg.spill = alloca [8 x i8], align 8
    #dbg_declare(ptr %self, !902, !DIExpression(), !908)
  %init.dbg.spill = alloca [0 x i8], align 1
    #dbg_declare(ptr %init.dbg.spill, !903, !DIExpression(), !909)
  store ptr %fold, ptr %fold.dbg.spill, align 8
    #dbg_declare(ptr %fold.dbg.spill, !904, !DIExpression(), !910)
; call core::ops::try_trait::NeverShortCircuit<T>::wrap_mut_2
  %_6 = call align 8 ptr @"_ZN4core3ops9try_trait26NeverShortCircuit$LT$T$GT$10wrap_mut_217hf7734f8bacd29157E"(ptr align 8 %fold) #19, !dbg !911
; call <core::iter::adapters::GenericShunt<I,R> as core::iter::traits::iterator::Iterator>::try_fold
  call void @"_ZN106_$LT$core..iter..adapters..GenericShunt$LT$I$C$R$GT$$u20$as$u20$core..iter..traits..iterator..Iterator$GT$8try_fold17h9c44473518146786E"(ptr align 8 %self, ptr align 8 %_6) #19, !dbg !912
  ret void, !dbg !913
}

; <core::iter::adapters::GenericShunt<I,R> as core::iter::traits::iterator::Iterator>::fold
; Function Attrs: inlinehint noredzone nounwind
define dso_local void @"_ZN106_$LT$core..iter..adapters..GenericShunt$LT$I$C$R$GT$$u20$as$u20$core..iter..traits..iterator..Iterator$GT$4fold17hd354c25741e129f9E"(ptr align 8 %self, ptr align 8 %fold) unnamed_addr #1 !dbg !914 {
start:
  %fold.dbg.spill = alloca [8 x i8], align 8
    #dbg_declare(ptr %self, !936, !DIExpression(), !941)
  %init.dbg.spill = alloca [0 x i8], align 1
    #dbg_declare(ptr %init.dbg.spill, !937, !DIExpression(), !942)
  store ptr %fold, ptr %fold.dbg.spill, align 8
    #dbg_declare(ptr %fold.dbg.spill, !938, !DIExpression(), !943)
; call core::ops::try_trait::NeverShortCircuit<T>::wrap_mut_2
  %_6 = call align 8 ptr @"_ZN4core3ops9try_trait26NeverShortCircuit$LT$T$GT$10wrap_mut_217h98dfac8b1641c412E"(ptr align 8 %fold) #19, !dbg !944
; call <core::iter::adapters::GenericShunt<I,R> as core::iter::traits::iterator::Iterator>::try_fold
  call void @"_ZN106_$LT$core..iter..adapters..GenericShunt$LT$I$C$R$GT$$u20$as$u20$core..iter..traits..iterator..Iterator$GT$8try_fold17he837e14668a706faE"(ptr align 8 %self, ptr align 8 %_6) #19, !dbg !945
  ret void, !dbg !946
}

; <core::iter::adapters::GenericShunt<I,R> as core::iter::traits::iterator::Iterator>::try_fold
; Function Attrs: noredzone nounwind
define dso_local void @"_ZN106_$LT$core..iter..adapters..GenericShunt$LT$I$C$R$GT$$u20$as$u20$core..iter..traits..iterator..Iterator$GT$8try_fold17h9c44473518146786E"(ptr align 8 %self, ptr align 8 %0) unnamed_addr #0 !dbg !947 {
start:
  %init.dbg.spill = alloca [0 x i8], align 1
  %self.dbg.spill = alloca [8 x i8], align 8
  %f = alloca [8 x i8], align 8
  store ptr %0, ptr %f, align 8
  store ptr %self, ptr %self.dbg.spill, align 8
    #dbg_declare(ptr %self.dbg.spill, !960, !DIExpression(), !972)
    #dbg_declare(ptr %init.dbg.spill, !961, !DIExpression(), !973)
    #dbg_declare(ptr %f, !962, !DIExpression(), !974)
  %_5 = getelementptr inbounds i8, ptr %self, i64 8, !dbg !975
  %_8 = load ptr, ptr %self, align 8, !dbg !976
; call core::iter::traits::iterator::Iterator::try_fold
  %_4 = call zeroext i1 @_ZN4core4iter6traits8iterator8Iterator8try_fold17h6b75e17449d59d0cE(ptr align 8 %_5, ptr align 8 %f, ptr align 2 %_8) #19, !dbg !975
; call core::ops::control_flow::ControlFlow<R,<R as core::ops::try_trait::Try>::Output>::into_try
  call void @"_ZN4core3ops12control_flow77ControlFlow$LT$R$C$$LT$R$u20$as$u20$core..ops..try_trait..Try$GT$..Output$GT$8into_try17heb5fe5b30a334288E"(i1 zeroext %_4) #19, !dbg !975
  ret void, !dbg !977
}

; <core::iter::adapters::GenericShunt<I,R> as core::iter::traits::iterator::Iterator>::try_fold
; Function Attrs: noredzone nounwind
define dso_local void @"_ZN106_$LT$core..iter..adapters..GenericShunt$LT$I$C$R$GT$$u20$as$u20$core..iter..traits..iterator..Iterator$GT$8try_fold17he837e14668a706faE"(ptr align 8 %self, ptr align 8 %0) unnamed_addr #0 !dbg !978 {
start:
  %init.dbg.spill = alloca [0 x i8], align 1
  %self.dbg.spill = alloca [8 x i8], align 8
  %f = alloca [8 x i8], align 8
  store ptr %0, ptr %f, align 8
  store ptr %self, ptr %self.dbg.spill, align 8
    #dbg_declare(ptr %self.dbg.spill, !986, !DIExpression(), !991)
    #dbg_declare(ptr %init.dbg.spill, !987, !DIExpression(), !992)
    #dbg_declare(ptr %f, !988, !DIExpression(), !993)
  %_5 = getelementptr inbounds i8, ptr %self, i64 8, !dbg !994
  %_8 = load ptr, ptr %self, align 8, !dbg !995
; call core::iter::traits::iterator::Iterator::try_fold
  %_4 = call zeroext i1 @_ZN4core4iter6traits8iterator8Iterator8try_fold17h0f9f1a459c628c4dE(ptr align 8 %_5, ptr align 8 %f, ptr align 2 %_8) #19, !dbg !994
; call core::ops::control_flow::ControlFlow<R,<R as core::ops::try_trait::Try>::Output>::into_try
  call void @"_ZN4core3ops12control_flow77ControlFlow$LT$R$C$$LT$R$u20$as$u20$core..ops..try_trait..Try$GT$..Output$GT$8into_try17heb5fe5b30a334288E"(i1 zeroext %_4) #19, !dbg !994
  ret void, !dbg !996
}

; <core::iter::adapters::GenericShunt<I,R> as core::iter::traits::iterator::Iterator>::try_fold::{{closure}}
; Function Attrs: inlinehint noredzone nounwind
define dso_local zeroext i1 @"_ZN106_$LT$core..iter..adapters..GenericShunt$LT$I$C$R$GT$$u20$as$u20$core..iter..traits..iterator..Iterator$GT$8try_fold28_$u7b$$u7b$closure$u7d$$u7d$17h1187b641496e956bE"(ptr align 8 %_1, i64 %0) unnamed_addr #1 !dbg !997 {
start:
  %r.dbg.spill = alloca [2 x i8], align 2
  %x.dbg.spill = alloca [4 x i8], align 4
  %1 = alloca [8 x i8], align 8
  %2 = alloca [8 x i8], align 8
  %acc.dbg.spill = alloca [0 x i8], align 1
  %_1.dbg.spill = alloca [8 x i8], align 8
  %_10 = alloca [4 x i8], align 2
  %_4 = alloca [8 x i8], align 4
  %_0 = alloca [1 x i8], align 1
  %3 = alloca [8 x i8], align 8
  %x = alloca [8 x i8], align 4
  store i64 %0, ptr %3, align 8
  call void @llvm.memcpy.p0.p0.i64(ptr align 4 %x, ptr align 8 %3, i64 8, i1 false)
  store ptr %_1, ptr %_1.dbg.spill, align 8
    #dbg_declare(ptr %_1.dbg.spill, !1042, !DIExpression(DW_OP_deref, DW_OP_deref), !1048)
    #dbg_declare(ptr %_1.dbg.spill, !1043, !DIExpression(DW_OP_deref, DW_OP_plus_uconst, 8, DW_OP_deref), !1049)
    #dbg_declare(ptr %acc.dbg.spill, !1040, !DIExpression(), !1050)
    #dbg_declare(ptr %x, !1041, !DIExpression(), !1051)
  call void @llvm.memcpy.p0.p0.i64(ptr align 8 %2, ptr align 4 %x, i64 8, i1 false), !dbg !1052
  %4 = load i64, ptr %2, align 8, !dbg !1052
; call <core::result::Result<T,E> as core::ops::try_trait::Try>::branch
  %5 = call i64 @"_ZN79_$LT$core..result..Result$LT$T$C$E$GT$$u20$as$u20$core..ops..try_trait..Try$GT$6branch17h18c5bbc23a0b879bE"(i64 %4) #19, !dbg !1052
  store i64 %5, ptr %1, align 8, !dbg !1052
  call void @llvm.memcpy.p0.p0.i64(ptr align 4 %_4, ptr align 8 %1, i64 8, i1 false), !dbg !1052
  %6 = load i16, ptr %_4, align 4, !dbg !1052
  %_5 = zext i16 %6 to i64, !dbg !1052
  %7 = icmp eq i64 %_5, 0, !dbg !1053
  br i1 %7, label %bb4, label %bb3, !dbg !1053

bb4:                                              ; preds = %start
  %8 = getelementptr inbounds i8, ptr %_4, i64 4, !dbg !1054
  %x1 = load i32, ptr %8, align 4, !dbg !1054
  store i32 %x1, ptr %x.dbg.spill, align 4, !dbg !1054
    #dbg_declare(ptr %x.dbg.spill, !1044, !DIExpression(), !1055)
  %_12 = load ptr, ptr %_1, align 8, !dbg !1056
; call core::ops::try_trait::NeverShortCircuit<T>::wrap_mut_2::{{closure}}
  call void @"_ZN4core3ops9try_trait26NeverShortCircuit$LT$T$GT$10wrap_mut_228_$u7b$$u7b$closure$u7d$$u7d$17hf30d866d56315808E"(ptr align 8 %_12, i32 signext %x1) #19, !dbg !1056
; call core::ops::control_flow::ControlFlow<R,<R as core::ops::try_trait::Try>::Output>::from_try
  %9 = call zeroext i1 @"_ZN4core3ops12control_flow77ControlFlow$LT$R$C$$LT$R$u20$as$u20$core..ops..try_trait..Try$GT$..Output$GT$8from_try17h1caaea004344712eE"() #19, !dbg !1057
  %10 = zext i1 %9 to i8, !dbg !1057
  store i8 %10, ptr %_0, align 1, !dbg !1057
  br label %bb8, !dbg !1057

bb3:                                              ; preds = %start
  %11 = getelementptr inbounds i8, ptr %_4, i64 2, !dbg !1058
  %r = load i16, ptr %11, align 2, !dbg !1058
  store i16 %r, ptr %r.dbg.spill, align 2, !dbg !1058
    #dbg_declare(ptr %r.dbg.spill, !1046, !DIExpression(), !1059)
  %12 = getelementptr inbounds i8, ptr %_10, i64 2, !dbg !1060
  store i16 %r, ptr %12, align 2, !dbg !1060
  store i16 1, ptr %_10, align 2, !dbg !1060
  %13 = getelementptr inbounds i8, ptr %_1, i64 8, !dbg !1061
  %_13 = load ptr, ptr %13, align 8, !dbg !1061
  %14 = getelementptr inbounds i8, ptr %_1, i64 8, !dbg !1061
  %_14 = load ptr, ptr %14, align 8, !dbg !1061
  %15 = load i16, ptr %_10, align 2, !dbg !1061
  %16 = getelementptr inbounds i8, ptr %_10, i64 2, !dbg !1061
  %17 = load i16, ptr %16, align 2, !dbg !1061
  store i16 %15, ptr %_14, align 2, !dbg !1061
  %18 = getelementptr inbounds i8, ptr %_14, i64 2, !dbg !1061
  store i16 %17, ptr %18, align 2, !dbg !1061
; call <core::ops::try_trait::NeverShortCircuit<T> as core::ops::try_trait::Try>::from_output
  call void @"_ZN94_$LT$core..ops..try_trait..NeverShortCircuit$LT$T$GT$$u20$as$u20$core..ops..try_trait..Try$GT$11from_output17he735945b32468a36E"() #19, !dbg !1062
  store i8 1, ptr %_0, align 1, !dbg !1063
  br label %bb8, !dbg !1064

bb8:                                              ; preds = %bb3, %bb4
  %19 = load i8, ptr %_0, align 1, !dbg !1065
  %20 = trunc i8 %19 to i1, !dbg !1065
  ret i1 %20, !dbg !1065

bb2:                                              ; No predecessors!
  unreachable, !dbg !1052
}

; <core::iter::adapters::GenericShunt<I,R> as core::iter::traits::iterator::Iterator>::try_fold::{{closure}}
; Function Attrs: inlinehint noredzone nounwind
define dso_local zeroext i1 @"_ZN106_$LT$core..iter..adapters..GenericShunt$LT$I$C$R$GT$$u20$as$u20$core..iter..traits..iterator..Iterator$GT$8try_fold28_$u7b$$u7b$closure$u7d$$u7d$17h894d65eb4fc12f09E"(ptr align 8 %_1, i64 %0) unnamed_addr #1 !dbg !1066 {
start:
  %r.dbg.spill = alloca [2 x i8], align 2
  %x.dbg.spill = alloca [4 x i8], align 4
  %1 = alloca [8 x i8], align 8
  %2 = alloca [8 x i8], align 8
  %acc.dbg.spill = alloca [0 x i8], align 1
  %_1.dbg.spill = alloca [8 x i8], align 8
  %_10 = alloca [4 x i8], align 2
  %_4 = alloca [8 x i8], align 4
  %_0 = alloca [1 x i8], align 1
  %3 = alloca [8 x i8], align 8
  %x = alloca [8 x i8], align 4
  store i64 %0, ptr %3, align 8
  call void @llvm.memcpy.p0.p0.i64(ptr align 4 %x, ptr align 8 %3, i64 8, i1 false)
  store ptr %_1, ptr %_1.dbg.spill, align 8
    #dbg_declare(ptr %_1.dbg.spill, !1078, !DIExpression(DW_OP_deref, DW_OP_deref), !1084)
    #dbg_declare(ptr %_1.dbg.spill, !1079, !DIExpression(DW_OP_deref, DW_OP_plus_uconst, 8, DW_OP_deref), !1085)
    #dbg_declare(ptr %acc.dbg.spill, !1076, !DIExpression(), !1086)
    #dbg_declare(ptr %x, !1077, !DIExpression(), !1087)
  call void @llvm.memcpy.p0.p0.i64(ptr align 8 %2, ptr align 4 %x, i64 8, i1 false), !dbg !1088
  %4 = load i64, ptr %2, align 8, !dbg !1088
; call <core::result::Result<T,E> as core::ops::try_trait::Try>::branch
  %5 = call i64 @"_ZN79_$LT$core..result..Result$LT$T$C$E$GT$$u20$as$u20$core..ops..try_trait..Try$GT$6branch17h18c5bbc23a0b879bE"(i64 %4) #19, !dbg !1088
  store i64 %5, ptr %1, align 8, !dbg !1088
  call void @llvm.memcpy.p0.p0.i64(ptr align 4 %_4, ptr align 8 %1, i64 8, i1 false), !dbg !1088
  %6 = load i16, ptr %_4, align 4, !dbg !1088
  %_5 = zext i16 %6 to i64, !dbg !1088
  %7 = icmp eq i64 %_5, 0, !dbg !1089
  br i1 %7, label %bb4, label %bb3, !dbg !1089

bb4:                                              ; preds = %start
  %8 = getelementptr inbounds i8, ptr %_4, i64 4, !dbg !1090
  %x1 = load i32, ptr %8, align 4, !dbg !1090
  store i32 %x1, ptr %x.dbg.spill, align 4, !dbg !1090
    #dbg_declare(ptr %x.dbg.spill, !1080, !DIExpression(), !1091)
  %_12 = load ptr, ptr %_1, align 8, !dbg !1092
; call core::ops::try_trait::NeverShortCircuit<T>::wrap_mut_2::{{closure}}
  call void @"_ZN4core3ops9try_trait26NeverShortCircuit$LT$T$GT$10wrap_mut_228_$u7b$$u7b$closure$u7d$$u7d$17h1641c08e0e8259a1E"(ptr align 8 %_12, i32 signext %x1) #19, !dbg !1092
; call core::ops::control_flow::ControlFlow<R,<R as core::ops::try_trait::Try>::Output>::from_try
  %9 = call zeroext i1 @"_ZN4core3ops12control_flow77ControlFlow$LT$R$C$$LT$R$u20$as$u20$core..ops..try_trait..Try$GT$..Output$GT$8from_try17h1caaea004344712eE"() #19, !dbg !1093
  %10 = zext i1 %9 to i8, !dbg !1093
  store i8 %10, ptr %_0, align 1, !dbg !1093
  br label %bb8, !dbg !1093

bb3:                                              ; preds = %start
  %11 = getelementptr inbounds i8, ptr %_4, i64 2, !dbg !1094
  %r = load i16, ptr %11, align 2, !dbg !1094
  store i16 %r, ptr %r.dbg.spill, align 2, !dbg !1094
    #dbg_declare(ptr %r.dbg.spill, !1082, !DIExpression(), !1095)
  %12 = getelementptr inbounds i8, ptr %_10, i64 2, !dbg !1096
  store i16 %r, ptr %12, align 2, !dbg !1096
  store i16 1, ptr %_10, align 2, !dbg !1096
  %13 = getelementptr inbounds i8, ptr %_1, i64 8, !dbg !1097
  %_13 = load ptr, ptr %13, align 8, !dbg !1097
  %14 = getelementptr inbounds i8, ptr %_1, i64 8, !dbg !1097
  %_14 = load ptr, ptr %14, align 8, !dbg !1097
  %15 = load i16, ptr %_10, align 2, !dbg !1097
  %16 = getelementptr inbounds i8, ptr %_10, i64 2, !dbg !1097
  %17 = load i16, ptr %16, align 2, !dbg !1097
  store i16 %15, ptr %_14, align 2, !dbg !1097
  %18 = getelementptr inbounds i8, ptr %_14, i64 2, !dbg !1097
  store i16 %17, ptr %18, align 2, !dbg !1097
; call <core::ops::try_trait::NeverShortCircuit<T> as core::ops::try_trait::Try>::from_output
  call void @"_ZN94_$LT$core..ops..try_trait..NeverShortCircuit$LT$T$GT$$u20$as$u20$core..ops..try_trait..Try$GT$11from_output17he735945b32468a36E"() #19, !dbg !1098
  store i8 1, ptr %_0, align 1, !dbg !1099
  br label %bb8, !dbg !1100

bb8:                                              ; preds = %bb3, %bb4
  %19 = load i8, ptr %_0, align 1, !dbg !1101
  %20 = trunc i8 %19 to i1, !dbg !1101
  ret i1 %20, !dbg !1101

bb2:                                              ; No predecessors!
  unreachable, !dbg !1088
}

; <core::iter::adapters::GenericShunt<I,R> as core::iter::traits::iterator::Iterator>::size_hint
; Function Attrs: noredzone nounwind
define dso_local void @"_ZN106_$LT$core..iter..adapters..GenericShunt$LT$I$C$R$GT$$u20$as$u20$core..iter..traits..iterator..Iterator$GT$9size_hint17h053ec0577368bca0E"(ptr sret([24 x i8]) align 8 %_0, ptr align 8 %self) unnamed_addr #0 !dbg !1102 {
start:
  %upper.dbg.spill = alloca [16 x i8], align 8
  %self.dbg.spill = alloca [8 x i8], align 8
  %_6 = alloca [24 x i8], align 8
  %_4 = alloca [16 x i8], align 8
  store ptr %self, ptr %self.dbg.spill, align 8
    #dbg_declare(ptr %self.dbg.spill, !1107, !DIExpression(), !1110)
  %_8 = load ptr, ptr %self, align 8, !dbg !1111
; call core::option::Option<T>::is_some
  %_2 = call zeroext i1 @"_ZN4core6option15Option$LT$T$GT$7is_some17h2f8e984a5c096097E"(ptr align 2 %_8) #19, !dbg !1111
  br i1 %_2, label %bb2, label %bb3, !dbg !1111

bb3:                                              ; preds = %start
  %_7 = getelementptr inbounds i8, ptr %self, i64 8, !dbg !1112
; call <core::char::decode::DecodeUtf16<I> as core::iter::traits::iterator::Iterator>::size_hint
  call void @"_ZN99_$LT$core..char..decode..DecodeUtf16$LT$I$GT$$u20$as$u20$core..iter..traits..iterator..Iterator$GT$9size_hint17h6d263224b728e7f1E"(ptr sret([24 x i8]) align 8 %_6, ptr align 8 %_7) #19, !dbg !1112
  %0 = getelementptr inbounds i8, ptr %_6, i64 8, !dbg !1113
  %upper.0 = load i64, ptr %0, align 8, !dbg !1113
  %1 = getelementptr inbounds i8, ptr %0, i64 8, !dbg !1113
  %upper.1 = load i64, ptr %1, align 8, !dbg !1113
  store i64 %upper.0, ptr %upper.dbg.spill, align 8, !dbg !1113
  %2 = getelementptr inbounds i8, ptr %upper.dbg.spill, i64 8, !dbg !1113
  store i64 %upper.1, ptr %2, align 8, !dbg !1113
    #dbg_declare(ptr %upper.dbg.spill, !1108, !DIExpression(), !1114)
  store i64 0, ptr %_0, align 8, !dbg !1115
  %3 = getelementptr inbounds i8, ptr %_0, i64 8, !dbg !1115
  store i64 %upper.0, ptr %3, align 8, !dbg !1115
  %4 = getelementptr inbounds i8, ptr %3, i64 8, !dbg !1115
  store i64 %upper.1, ptr %4, align 8, !dbg !1115
  br label %bb5, !dbg !1116

bb2:                                              ; preds = %start
  %5 = getelementptr inbounds i8, ptr %_4, i64 8, !dbg !1117
  store i64 0, ptr %5, align 8, !dbg !1117
  store i64 1, ptr %_4, align 8, !dbg !1117
  store i64 0, ptr %_0, align 8, !dbg !1118
  %6 = load i64, ptr %_4, align 8, !dbg !1118
  %7 = getelementptr inbounds i8, ptr %_4, i64 8, !dbg !1118
  %8 = load i64, ptr %7, align 8, !dbg !1118
  %9 = getelementptr inbounds i8, ptr %_0, i64 8, !dbg !1118
  store i64 %6, ptr %9, align 8, !dbg !1118
  %10 = getelementptr inbounds i8, ptr %9, i64 8, !dbg !1118
  store i64 %8, ptr %10, align 8, !dbg !1118
  br label %bb5, !dbg !1116

bb5:                                              ; preds = %bb2, %bb3
  ret void, !dbg !1119
}

; <core::iter::adapters::GenericShunt<I,R> as core::iter::traits::iterator::Iterator>::size_hint
; Function Attrs: noredzone nounwind
define dso_local void @"_ZN106_$LT$core..iter..adapters..GenericShunt$LT$I$C$R$GT$$u20$as$u20$core..iter..traits..iterator..Iterator$GT$9size_hint17h1bc7ca62f3cc9270E"(ptr sret([24 x i8]) align 8 %_0, ptr align 8 %self) unnamed_addr #0 !dbg !1120 {
start:
  %upper.dbg.spill = alloca [16 x i8], align 8
  %self.dbg.spill = alloca [8 x i8], align 8
  %_6 = alloca [24 x i8], align 8
  %_4 = alloca [16 x i8], align 8
  store ptr %self, ptr %self.dbg.spill, align 8
    #dbg_declare(ptr %self.dbg.spill, !1125, !DIExpression(), !1128)
  %_8 = load ptr, ptr %self, align 8, !dbg !1129
; call core::option::Option<T>::is_some
  %_2 = call zeroext i1 @"_ZN4core6option15Option$LT$T$GT$7is_some17h2f8e984a5c096097E"(ptr align 2 %_8) #19, !dbg !1129
  br i1 %_2, label %bb2, label %bb3, !dbg !1129

bb3:                                              ; preds = %start
  %_7 = getelementptr inbounds i8, ptr %self, i64 8, !dbg !1130
; call <core::char::decode::DecodeUtf16<I> as core::iter::traits::iterator::Iterator>::size_hint
  call void @"_ZN99_$LT$core..char..decode..DecodeUtf16$LT$I$GT$$u20$as$u20$core..iter..traits..iterator..Iterator$GT$9size_hint17h7a4cf7d250e8c107E"(ptr sret([24 x i8]) align 8 %_6, ptr align 8 %_7) #19, !dbg !1130
  %0 = getelementptr inbounds i8, ptr %_6, i64 8, !dbg !1131
  %upper.0 = load i64, ptr %0, align 8, !dbg !1131
  %1 = getelementptr inbounds i8, ptr %0, i64 8, !dbg !1131
  %upper.1 = load i64, ptr %1, align 8, !dbg !1131
  store i64 %upper.0, ptr %upper.dbg.spill, align 8, !dbg !1131
  %2 = getelementptr inbounds i8, ptr %upper.dbg.spill, i64 8, !dbg !1131
  store i64 %upper.1, ptr %2, align 8, !dbg !1131
    #dbg_declare(ptr %upper.dbg.spill, !1126, !DIExpression(), !1132)
  store i64 0, ptr %_0, align 8, !dbg !1133
  %3 = getelementptr inbounds i8, ptr %_0, i64 8, !dbg !1133
  store i64 %upper.0, ptr %3, align 8, !dbg !1133
  %4 = getelementptr inbounds i8, ptr %3, i64 8, !dbg !1133
  store i64 %upper.1, ptr %4, align 8, !dbg !1133
  br label %bb5, !dbg !1134

bb2:                                              ; preds = %start
  %5 = getelementptr inbounds i8, ptr %_4, i64 8, !dbg !1135
  store i64 0, ptr %5, align 8, !dbg !1135
  store i64 1, ptr %_4, align 8, !dbg !1135
  store i64 0, ptr %_0, align 8, !dbg !1136
  %6 = load i64, ptr %_4, align 8, !dbg !1136
  %7 = getelementptr inbounds i8, ptr %_4, i64 8, !dbg !1136
  %8 = load i64, ptr %7, align 8, !dbg !1136
  %9 = getelementptr inbounds i8, ptr %_0, i64 8, !dbg !1136
  store i64 %6, ptr %9, align 8, !dbg !1136
  %10 = getelementptr inbounds i8, ptr %9, i64 8, !dbg !1136
  store i64 %8, ptr %10, align 8, !dbg !1136
  br label %bb5, !dbg !1134

bb5:                                              ; preds = %bb2, %bb3
  ret void, !dbg !1137
}

; <core::ops::range::Range<usize> as core::slice::index::SliceIndex<[T]>>::get_unchecked_mut
; Function Attrs: inlinehint noredzone nounwind
define dso_local { ptr, i64 } @"_ZN106_$LT$core..ops..range..Range$LT$usize$GT$$u20$as$u20$core..slice..index..SliceIndex$LT$$u5b$T$u5d$$GT$$GT$17get_unchecked_mut17h7af9b6d4ad70b8deE"(i64 %self.0, i64 %self.1, ptr %slice.0, i64 %slice.1) unnamed_addr #1 !dbg !1138 {
start:
  %ptr.dbg.spill1.i.i = alloca [8 x i8], align 8
  %index.dbg.spill.i.i = alloca [8 x i8], align 8
  %ptr.dbg.spill.i.i = alloca [16 x i8], align 8
  %ptr.dbg.spill1.i = alloca [8 x i8], align 8
  %len.dbg.spill.i = alloca [8 x i8], align 8
  %offset.dbg.spill.i = alloca [8 x i8], align 8
  %ptr.dbg.spill.i = alloca [16 x i8], align 8
  %self.dbg.spill.i = alloca [16 x i8], align 8
  %new_len.dbg.spill = alloca [8 x i8], align 8
  %slice.dbg.spill = alloca [16 x i8], align 8
  %self.dbg.spill = alloca [16 x i8], align 8
  store i64 %self.0, ptr %self.dbg.spill, align 8
  %0 = getelementptr inbounds i8, ptr %self.dbg.spill, i64 8
  store i64 %self.1, ptr %0, align 8
    #dbg_declare(ptr %self.dbg.spill, !1167, !DIExpression(), !1173)
  store ptr %slice.0, ptr %slice.dbg.spill, align 8
  %1 = getelementptr inbounds i8, ptr %slice.dbg.spill, i64 8
  store i64 %slice.1, ptr %1, align 8
    #dbg_declare(ptr %slice.dbg.spill, !1168, !DIExpression(), !1174)
  br label %bb1, !dbg !1175

bb1:                                              ; preds = %start
  store ptr %slice.0, ptr %self.dbg.spill.i, align 8
  %2 = getelementptr inbounds i8, ptr %self.dbg.spill.i, i64 8
  store i64 %slice.1, ptr %2, align 8
    #dbg_declare(ptr %self.dbg.spill.i, !1178, !DIExpression(), !1186)
; call core::ptr::metadata::metadata
  %_0.i = call i64 @_ZN4core3ptr8metadata8metadata17h4d1dda34fb850d52E(ptr %slice.0, i64 %slice.1) #19, !dbg !1188
; call <core::ops::range::Range<usize> as core::slice::index::SliceIndex<[T]>>::get_unchecked_mut::precondition_check
  call void @"_ZN106_$LT$core..ops..range..Range$LT$usize$GT$$u20$as$u20$core..slice..index..SliceIndex$LT$$u5b$T$u5d$$GT$$GT$17get_unchecked_mut18precondition_check17hbf49d1e92a4285adE"(i64 %self.0, i64 %self.1, i64 %_0.i) #19, !dbg !1189
  br label %bb3, !dbg !1189

bb3:                                              ; preds = %bb1
  %new_len = sub nuw i64 %self.1, %self.0, !dbg !1190
  store i64 %new_len, ptr %new_len.dbg.spill, align 8, !dbg !1190
    #dbg_declare(ptr %new_len.dbg.spill, !1169, !DIExpression(), !1191)
  store ptr %slice.0, ptr %ptr.dbg.spill.i, align 8
  %3 = getelementptr inbounds i8, ptr %ptr.dbg.spill.i, i64 8
  store i64 %slice.1, ptr %3, align 8
    #dbg_declare(ptr %ptr.dbg.spill.i, !1192, !DIExpression(), !1202)
  store i64 %self.0, ptr %offset.dbg.spill.i, align 8
    #dbg_declare(ptr %offset.dbg.spill.i, !1197, !DIExpression(), !1204)
  store i64 %new_len, ptr %len.dbg.spill.i, align 8
    #dbg_declare(ptr %len.dbg.spill.i, !1198, !DIExpression(), !1205)
  store ptr %slice.0, ptr %ptr.dbg.spill.i.i, align 8
  %4 = getelementptr inbounds i8, ptr %ptr.dbg.spill.i.i, i64 8
  store i64 %slice.1, ptr %4, align 8
    #dbg_declare(ptr %ptr.dbg.spill.i.i, !1206, !DIExpression(), !1214)
  store i64 %self.0, ptr %index.dbg.spill.i.i, align 8
    #dbg_declare(ptr %index.dbg.spill.i.i, !1211, !DIExpression(), !1216)
  store ptr %slice.0, ptr %ptr.dbg.spill1.i.i, align 8, !dbg !1217
    #dbg_declare(ptr %ptr.dbg.spill1.i.i, !1212, !DIExpression(), !1218)
  %_0.i.i = getelementptr inbounds i8, ptr %slice.0, i64 %self.0, !dbg !1219
  store ptr %_0.i.i, ptr %ptr.dbg.spill1.i, align 8, !dbg !1220
    #dbg_declare(ptr %ptr.dbg.spill1.i, !1199, !DIExpression(), !1221)
  %5 = insertvalue { ptr, i64 } poison, ptr %_0.i.i, 0, !dbg !1222
  %6 = insertvalue { ptr, i64 } %5, i64 %new_len, 1, !dbg !1222
  %_0.0 = extractvalue { ptr, i64 } %6, 0, !dbg !1223
  %_0.1 = extractvalue { ptr, i64 } %6, 1, !dbg !1223
  %7 = insertvalue { ptr, i64 } poison, ptr %_0.0, 0, !dbg !1224
  %8 = insertvalue { ptr, i64 } %7, i64 %_0.1, 1, !dbg !1224
  ret { ptr, i64 } %8, !dbg !1224
}

; <core::ops::range::Range<usize> as core::slice::index::SliceIndex<[T]>>::get_unchecked_mut::precondition_check
; Function Attrs: inlinehint noredzone nounwind
define internal void @"_ZN106_$LT$core..ops..range..Range$LT$usize$GT$$u20$as$u20$core..slice..index..SliceIndex$LT$$u5b$T$u5d$$GT$$GT$17get_unchecked_mut18precondition_check17hbf49d1e92a4285adE"(i64 %start1, i64 %end, i64 %len) unnamed_addr #1 !dbg !1225 {
start:
  %len.dbg.spill = alloca [8 x i8], align 8
  %end.dbg.spill = alloca [8 x i8], align 8
  %start.dbg.spill = alloca [8 x i8], align 8
  store i64 %start1, ptr %start.dbg.spill, align 8
    #dbg_declare(ptr %start.dbg.spill, !1230, !DIExpression(), !1233)
  store i64 %end, ptr %end.dbg.spill, align 8
    #dbg_declare(ptr %end.dbg.spill, !1231, !DIExpression(), !1233)
  store i64 %len, ptr %len.dbg.spill, align 8
    #dbg_declare(ptr %len.dbg.spill, !1232, !DIExpression(), !1233)
  %_4 = icmp uge i64 %end, %start1, !dbg !1234
  br i1 %_4, label %bb1, label %bb3, !dbg !1234

bb3:                                              ; preds = %bb1, %start
; call core::panicking::panic_nounwind
  call void @_ZN4core9panicking14panic_nounwind17hfc993481fff279c3E(ptr align 1 @alloc_e4c0784e4975da2173a354afd99193ad, i64 101) #20, !dbg !1236
  unreachable, !dbg !1236

bb1:                                              ; preds = %start
  %_5 = icmp ule i64 %end, %len, !dbg !1237
  br i1 %_5, label %bb2, label %bb3, !dbg !1237

bb2:                                              ; preds = %bb1
  ret void, !dbg !1238
}

; <core::ops::range::RangeTo<usize> as core::slice::index::SliceIndex<[T]>>::get_unchecked
; Function Attrs: inlinehint noredzone nounwind
define dso_local { ptr, i64 } @"_ZN108_$LT$core..ops..range..RangeTo$LT$usize$GT$$u20$as$u20$core..slice..index..SliceIndex$LT$$u5b$T$u5d$$GT$$GT$13get_unchecked17h131bfb384e61a5beE"(i64 %self, ptr %slice.0, i64 %slice.1) unnamed_addr #1 !dbg !1239 {
start:
  %slice.dbg.spill = alloca [16 x i8], align 8
  %self.dbg.spill = alloca [8 x i8], align 8
  store i64 %self, ptr %self.dbg.spill, align 8
    #dbg_declare(ptr %self.dbg.spill, !1251, !DIExpression(), !1253)
  store ptr %slice.0, ptr %slice.dbg.spill, align 8
  %0 = getelementptr inbounds i8, ptr %slice.dbg.spill, i64 8
  store i64 %slice.1, ptr %0, align 8
    #dbg_declare(ptr %slice.dbg.spill, !1252, !DIExpression(), !1254)
; call <core::ops::range::Range<usize> as core::slice::index::SliceIndex<[T]>>::get_unchecked
  %1 = call { ptr, i64 } @"_ZN106_$LT$core..ops..range..Range$LT$usize$GT$$u20$as$u20$core..slice..index..SliceIndex$LT$$u5b$T$u5d$$GT$$GT$13get_unchecked17h32020fa005a005ebE"(i64 0, i64 %self, ptr %slice.0, i64 %slice.1) #19, !dbg !1255
  %_0.0 = extractvalue { ptr, i64 } %1, 0, !dbg !1255
  %_0.1 = extractvalue { ptr, i64 } %1, 1, !dbg !1255
  %2 = insertvalue { ptr, i64 } poison, ptr %_0.0, 0, !dbg !1256
  %3 = insertvalue { ptr, i64 } %2, i64 %_0.1, 1, !dbg !1256
  ret { ptr, i64 } %3, !dbg !1256
}

; <core::ops::range::RangeTo<usize> as core::slice::index::SliceIndex<[T]>>::get_unchecked_mut
; Function Attrs: inlinehint noredzone nounwind
define dso_local { ptr, i64 } @"_ZN108_$LT$core..ops..range..RangeTo$LT$usize$GT$$u20$as$u20$core..slice..index..SliceIndex$LT$$u5b$T$u5d$$GT$$GT$17get_unchecked_mut17he5773afdf4580b36E"(i64 %self, ptr %slice.0, i64 %slice.1) unnamed_addr #1 !dbg !1257 {
start:
  %slice.dbg.spill = alloca [16 x i8], align 8
  %self.dbg.spill = alloca [8 x i8], align 8
  store i64 %self, ptr %self.dbg.spill, align 8
    #dbg_declare(ptr %self.dbg.spill, !1261, !DIExpression(), !1263)
  store ptr %slice.0, ptr %slice.dbg.spill, align 8
  %0 = getelementptr inbounds i8, ptr %slice.dbg.spill, i64 8
  store i64 %slice.1, ptr %0, align 8
    #dbg_declare(ptr %slice.dbg.spill, !1262, !DIExpression(), !1264)
; call <core::ops::range::Range<usize> as core::slice::index::SliceIndex<[T]>>::get_unchecked_mut
  %1 = call { ptr, i64 } @"_ZN106_$LT$core..ops..range..Range$LT$usize$GT$$u20$as$u20$core..slice..index..SliceIndex$LT$$u5b$T$u5d$$GT$$GT$17get_unchecked_mut17h7af9b6d4ad70b8deE"(i64 0, i64 %self, ptr %slice.0, i64 %slice.1) #19, !dbg !1265
  %_0.0 = extractvalue { ptr, i64 } %1, 0, !dbg !1265
  %_0.1 = extractvalue { ptr, i64 } %1, 1, !dbg !1265
  %2 = insertvalue { ptr, i64 } poison, ptr %_0.0, 0, !dbg !1266
  %3 = insertvalue { ptr, i64 } %2, i64 %_0.1, 1, !dbg !1266
  ret { ptr, i64 } %3, !dbg !1266
}

; <core::ops::range::RangeFrom<usize> as core::slice::index::SliceIndex<[T]>>::get_unchecked_mut
; Function Attrs: inlinehint noredzone nounwind
define dso_local { ptr, i64 } @"_ZN110_$LT$core..ops..range..RangeFrom$LT$usize$GT$$u20$as$u20$core..slice..index..SliceIndex$LT$$u5b$T$u5d$$GT$$GT$17get_unchecked_mut17ha0f5a8aed2ce91e5E"(i64 %self, ptr %slice.0, i64 %slice.1) unnamed_addr #1 !dbg !1267 {
start:
  %self.dbg.spill.i = alloca [16 x i8], align 8
  %slice.dbg.spill = alloca [16 x i8], align 8
  %self.dbg.spill = alloca [8 x i8], align 8
  store i64 %self, ptr %self.dbg.spill, align 8
    #dbg_declare(ptr %self.dbg.spill, !1275, !DIExpression(), !1277)
  store ptr %slice.0, ptr %slice.dbg.spill, align 8
  %0 = getelementptr inbounds i8, ptr %slice.dbg.spill, i64 8
  store i64 %slice.1, ptr %0, align 8
    #dbg_declare(ptr %slice.dbg.spill, !1276, !DIExpression(), !1278)
  store ptr %slice.0, ptr %self.dbg.spill.i, align 8
  %1 = getelementptr inbounds i8, ptr %self.dbg.spill.i, i64 8
  store i64 %slice.1, ptr %1, align 8
    #dbg_declare(ptr %self.dbg.spill.i, !1178, !DIExpression(), !1279)
; call core::ptr::metadata::metadata
  %_0.i = call i64 @_ZN4core3ptr8metadata8metadata17h4d1dda34fb850d52E(ptr %slice.0, i64 %slice.1) #19, !dbg !1281
; call <core::ops::range::Range<usize> as core::slice::index::SliceIndex<[T]>>::get_unchecked_mut
  %2 = call { ptr, i64 } @"_ZN106_$LT$core..ops..range..Range$LT$usize$GT$$u20$as$u20$core..slice..index..SliceIndex$LT$$u5b$T$u5d$$GT$$GT$17get_unchecked_mut17h7af9b6d4ad70b8deE"(i64 %self, i64 %_0.i, ptr %slice.0, i64 %slice.1) #19, !dbg !1282
  %_0.0 = extractvalue { ptr, i64 } %2, 0, !dbg !1282
  %_0.1 = extractvalue { ptr, i64 } %2, 1, !dbg !1282
  %3 = insertvalue { ptr, i64 } poison, ptr %_0.0, 0, !dbg !1283
  %4 = insertvalue { ptr, i64 } %3, i64 %_0.1, 1, !dbg !1283
  ret { ptr, i64 } %4, !dbg !1283
}

; <core::slice::iter::Iter<T> as core::iter::traits::unchecked_iterator::UncheckedIterator>::next_unchecked
; Function Attrs: inlinehint noredzone nounwind
define dso_local align 1 ptr @"_ZN110_$LT$core..slice..iter..Iter$LT$T$GT$$u20$as$u20$core..iter..traits..unchecked_iterator..UncheckedIterator$GT$14next_unchecked17h9bac6f3dfbf9c5adE"(ptr align 8 %self) unnamed_addr #1 !dbg !1284 {
start:
  %self.dbg.spill.i2.i = alloca [8 x i8], align 8
  %count.dbg.spill.i.i = alloca [8 x i8], align 8
  %self.dbg.spill.i1.i1 = alloca [8 x i8], align 8
  %self.dbg.spill.i.i2 = alloca [8 x i8], align 8
  %_end.dbg.spill.i = alloca [8 x i8], align 8
  %old.dbg.spill.i = alloca [8 x i8], align 8
  %offset.dbg.spill.i = alloca [8 x i8], align 8
  %self.dbg.spill.i3 = alloca [8 x i8], align 8
  %self.dbg.spill.i1.i = alloca [8 x i8], align 8
  %self.dbg.spill.i.i = alloca [8 x i8], align 8
  %self.dbg.spill.i = alloca [8 x i8], align 8
  %self.dbg.spill = alloca [8 x i8], align 8
  %_3 = alloca [8 x i8], align 8
  store ptr %self, ptr %self.dbg.spill, align 8
    #dbg_declare(ptr %self.dbg.spill, !1291, !DIExpression(), !1292)
  store ptr %self, ptr %self.dbg.spill.i3, align 8
    #dbg_declare(ptr %self.dbg.spill.i3, !1293, !DIExpression(), !1308)
  store i64 1, ptr %offset.dbg.spill.i, align 8
    #dbg_declare(ptr %offset.dbg.spill.i, !1299, !DIExpression(), !1310)
  %old.i = load ptr, ptr %self, align 8, !dbg !1311
  store ptr %old.i, ptr %old.dbg.spill.i, align 8, !dbg !1311
    #dbg_declare(ptr %old.dbg.spill.i, !1300, !DIExpression(), !1312)
  %_10.i = getelementptr inbounds i8, ptr %self, i64 8, !dbg !1313
  store ptr %_10.i, ptr %self.dbg.spill.i.i2, align 8
    #dbg_declare(ptr %self.dbg.spill.i.i2, !1314, !DIExpression(), !1325)
  store ptr %_10.i, ptr %_end.dbg.spill.i, align 8, !dbg !1327
    #dbg_declare(ptr %_end.dbg.spill.i, !1305, !DIExpression(), !1328)
  %_12.i = load ptr, ptr %self, align 8, !dbg !1329
  store ptr %_12.i, ptr %self.dbg.spill.i1.i1, align 8
    #dbg_declare(ptr %self.dbg.spill.i1.i1, !1330, !DIExpression(), !1338)
  store i64 1, ptr %count.dbg.spill.i.i, align 8
    #dbg_declare(ptr %count.dbg.spill.i.i, !1337, !DIExpression(), !1340)
  store ptr %_12.i, ptr %self.dbg.spill.i2.i, align 8
    #dbg_declare(ptr %self.dbg.spill.i2.i, !1341, !DIExpression(), !1348)
  %_3.i.i = getelementptr inbounds [2 x i8], ptr %_12.i, i64 1, !dbg !1350
  store ptr %_3.i.i, ptr %self, align 8, !dbg !1351
  store ptr %old.i, ptr %_3, align 8, !dbg !1352
  store ptr %_3, ptr %self.dbg.spill.i, align 8
    #dbg_declare(ptr %self.dbg.spill.i, !1353, !DIExpression(), !1360)
  %_4.i = load ptr, ptr %_3, align 8, !dbg !1362
  store ptr %_4.i, ptr %self.dbg.spill.i1.i, align 8
    #dbg_declare(ptr %self.dbg.spill.i1.i, !1341, !DIExpression(), !1363)
  store ptr %_4.i, ptr %self.dbg.spill.i.i, align 8
    #dbg_declare(ptr %self.dbg.spill.i.i, !1365, !DIExpression(), !1370)
  ret ptr %_4.i, !dbg !1372
}

; <core::iter::adapters::skip_while::SkipWhile<I,P> as core::iter::traits::iterator::Iterator>::next
; Function Attrs: inlinehint noredzone nounwind
define dso_local i32 @"_ZN115_$LT$core..iter..adapters..skip_while..SkipWhile$LT$I$C$P$GT$$u20$as$u20$core..iter..traits..iterator..Iterator$GT$4next17h05254696377b7db8E"(ptr align 8 %self) unnamed_addr #1 !dbg !1373 {
start:
  %pred.dbg.spill = alloca [8 x i8], align 8
  %flag.dbg.spill = alloca [8 x i8], align 8
  %self.dbg.spill = alloca [8 x i8], align 8
  store ptr %self, ptr %self.dbg.spill, align 8
    #dbg_declare(ptr %self.dbg.spill, !1418, !DIExpression(), !1425)
  %flag = getelementptr inbounds i8, ptr %self, i64 16, !dbg !1426
  store ptr %flag, ptr %flag.dbg.spill, align 8, !dbg !1426
    #dbg_declare(ptr %flag.dbg.spill, !1419, !DIExpression(), !1427)
  %pred = getelementptr inbounds i8, ptr %self, i64 17, !dbg !1428
  store ptr %pred, ptr %pred.dbg.spill, align 8, !dbg !1428
    #dbg_declare(ptr %pred.dbg.spill, !1422, !DIExpression(), !1429)
; call <core::iter::adapters::skip_while::SkipWhile<I,P> as core::iter::traits::iterator::Iterator>::next::check
  %0 = call { ptr, ptr } @"_ZN115_$LT$core..iter..adapters..skip_while..SkipWhile$LT$I$C$P$GT$$u20$as$u20$core..iter..traits..iterator..Iterator$GT$4next5check17hca7c3cfa00c3dc4bE"(ptr align 1 %flag, ptr align 1 %pred) #19, !dbg !1430
  %_5.0 = extractvalue { ptr, ptr } %0, 0, !dbg !1430
  %_5.1 = extractvalue { ptr, ptr } %0, 1, !dbg !1430
; call core::iter::traits::iterator::Iterator::find
  %_0 = call i32 @_ZN4core4iter6traits8iterator8Iterator4find17hd106590b1f58c5e2E(ptr align 8 %self, ptr align 1 %_5.0, ptr align 1 %_5.1) #19, !dbg !1431
  ret i32 %_0, !dbg !1432
}

; <core::iter::adapters::skip_while::SkipWhile<I,P> as core::iter::traits::iterator::Iterator>::next
; Function Attrs: inlinehint noredzone nounwind
define dso_local i32 @"_ZN115_$LT$core..iter..adapters..skip_while..SkipWhile$LT$I$C$P$GT$$u20$as$u20$core..iter..traits..iterator..Iterator$GT$4next17ha1e2debf19aa7813E"(ptr align 8 %self) unnamed_addr #1 !dbg !1433 {
start:
  %pred.dbg.spill = alloca [8 x i8], align 8
  %flag.dbg.spill = alloca [8 x i8], align 8
  %self.dbg.spill = alloca [8 x i8], align 8
  store ptr %self, ptr %self.dbg.spill, align 8
    #dbg_declare(ptr %self.dbg.spill, !1453, !DIExpression(), !1459)
  %flag = getelementptr inbounds i8, ptr %self, i64 16, !dbg !1460
  store ptr %flag, ptr %flag.dbg.spill, align 8, !dbg !1460
    #dbg_declare(ptr %flag.dbg.spill, !1454, !DIExpression(), !1461)
  %pred = getelementptr inbounds i8, ptr %self, i64 17, !dbg !1462
  store ptr %pred, ptr %pred.dbg.spill, align 8, !dbg !1462
    #dbg_declare(ptr %pred.dbg.spill, !1456, !DIExpression(), !1463)
; call <core::iter::adapters::skip_while::SkipWhile<I,P> as core::iter::traits::iterator::Iterator>::next::check
  %0 = call { ptr, ptr } @"_ZN115_$LT$core..iter..adapters..skip_while..SkipWhile$LT$I$C$P$GT$$u20$as$u20$core..iter..traits..iterator..Iterator$GT$4next5check17h2e34675695ca28e1E"(ptr align 1 %flag, ptr align 1 %pred) #19, !dbg !1464
  %_5.0 = extractvalue { ptr, ptr } %0, 0, !dbg !1464
  %_5.1 = extractvalue { ptr, ptr } %0, 1, !dbg !1464
; call <core::iter::adapters::rev::Rev<I> as core::iter::traits::iterator::Iterator>::find
  %_0 = call i32 @"_ZN98_$LT$core..iter..adapters..rev..Rev$LT$I$GT$$u20$as$u20$core..iter..traits..iterator..Iterator$GT$4find17hcb6973d7cab9c285E"(ptr align 8 %self, ptr align 1 %_5.0, ptr align 1 %_5.1) #19, !dbg !1465
  ret i32 %_0, !dbg !1466
}

; <core::iter::adapters::skip_while::SkipWhile<I,P> as core::iter::traits::iterator::Iterator>::next::check
; Function Attrs: noredzone nounwind
define dso_local { ptr, ptr } @"_ZN115_$LT$core..iter..adapters..skip_while..SkipWhile$LT$I$C$P$GT$$u20$as$u20$core..iter..traits..iterator..Iterator$GT$4next5check17h2e34675695ca28e1E"(ptr align 1 %flag, ptr align 1 %pred) unnamed_addr #0 !dbg !1467 {
start:
  %pred.dbg.spill = alloca [8 x i8], align 8
  %flag.dbg.spill = alloca [8 x i8], align 8
  store ptr %flag, ptr %flag.dbg.spill, align 8
    #dbg_declare(ptr %flag.dbg.spill, !1477, !DIExpression(), !1481)
  store ptr %pred, ptr %pred.dbg.spill, align 8
    #dbg_declare(ptr %pred.dbg.spill, !1478, !DIExpression(), !1482)
  %0 = insertvalue { ptr, ptr } poison, ptr %flag, 0, !dbg !1483
  %1 = insertvalue { ptr, ptr } %0, ptr %pred, 1, !dbg !1483
  ret { ptr, ptr } %1, !dbg !1483
}

; <core::iter::adapters::skip_while::SkipWhile<I,P> as core::iter::traits::iterator::Iterator>::next::check
; Function Attrs: noredzone nounwind
define dso_local { ptr, ptr } @"_ZN115_$LT$core..iter..adapters..skip_while..SkipWhile$LT$I$C$P$GT$$u20$as$u20$core..iter..traits..iterator..Iterator$GT$4next5check17hca7c3cfa00c3dc4bE"(ptr align 1 %flag, ptr align 1 %pred) unnamed_addr #0 !dbg !1484 {
start:
  %pred.dbg.spill = alloca [8 x i8], align 8
  %flag.dbg.spill = alloca [8 x i8], align 8
  store ptr %flag, ptr %flag.dbg.spill, align 8
    #dbg_declare(ptr %flag.dbg.spill, !1492, !DIExpression(), !1496)
  store ptr %pred, ptr %pred.dbg.spill, align 8
    #dbg_declare(ptr %pred.dbg.spill, !1493, !DIExpression(), !1497)
  %0 = insertvalue { ptr, ptr } poison, ptr %flag, 0, !dbg !1498
  %1 = insertvalue { ptr, ptr } %0, ptr %pred, 1, !dbg !1498
  ret { ptr, ptr } %1, !dbg !1498
}

; <core::iter::adapters::skip_while::SkipWhile<I,P> as core::iter::traits::iterator::Iterator>::next::check::{{closure}}
; Function Attrs: inlinehint noredzone nounwind
define dso_local zeroext i1 @"_ZN115_$LT$core..iter..adapters..skip_while..SkipWhile$LT$I$C$P$GT$$u20$as$u20$core..iter..traits..iterator..Iterator$GT$4next5check28_$u7b$$u7b$closure$u7d$$u7d$17h921f5f98988e8e66E"(ptr align 8 %_1, ptr align 4 %x) unnamed_addr #1 !dbg !1499 {
start:
  %x.dbg.spill = alloca [8 x i8], align 8
  %_1.dbg.spill = alloca [8 x i8], align 8
  %_0 = alloca [1 x i8], align 1
  store ptr %_1, ptr %_1.dbg.spill, align 8
    #dbg_declare(ptr %_1.dbg.spill, !1506, !DIExpression(DW_OP_deref), !1508)
    #dbg_declare(ptr %_1.dbg.spill, !1507, !DIExpression(DW_OP_deref, DW_OP_plus_uconst, 8), !1509)
  store ptr %x, ptr %x.dbg.spill, align 8
    #dbg_declare(ptr %x.dbg.spill, !1505, !DIExpression(), !1510)
  %_6 = load ptr, ptr %_1, align 8, !dbg !1511
  %0 = load i8, ptr %_6, align 1, !dbg !1511
  %_3 = trunc i8 %0 to i1, !dbg !1511
  br i1 %_3, label %bb4, label %bb1, !dbg !1511

bb1:                                              ; preds = %start
  %1 = getelementptr inbounds i8, ptr %_1, i64 8, !dbg !1512
  %_7 = load ptr, ptr %1, align 8, !dbg !1512
; call alloc::str::<impl str>::to_lowercase::case_ignorable_then_cased::{{closure}}
  %_4 = call zeroext i1 @"_ZN5alloc3str21_$LT$impl$u20$str$GT$12to_lowercase25case_ignorable_then_cased28_$u7b$$u7b$closure$u7d$$u7d$17h87fcd1a278770be1E"(ptr align 1 %_7, ptr align 4 %x) #19, !dbg !1512
  br i1 %_4, label %bb3, label %bb4, !dbg !1512

bb4:                                              ; preds = %bb1, %start
  %_8 = load ptr, ptr %_1, align 8, !dbg !1513
  store i8 1, ptr %_8, align 1, !dbg !1513
  store i8 1, ptr %_0, align 1, !dbg !1514
  br label %bb5, !dbg !1515

bb3:                                              ; preds = %bb1
  store i8 0, ptr %_0, align 1, !dbg !1516
  br label %bb5, !dbg !1515

bb5:                                              ; preds = %bb4, %bb3
  %2 = load i8, ptr %_0, align 1, !dbg !1517
  %3 = trunc i8 %2 to i1, !dbg !1517
  ret i1 %3, !dbg !1517
}

; <core::iter::adapters::skip_while::SkipWhile<I,P> as core::iter::traits::iterator::Iterator>::next::check::{{closure}}
; Function Attrs: inlinehint noredzone nounwind
define dso_local zeroext i1 @"_ZN115_$LT$core..iter..adapters..skip_while..SkipWhile$LT$I$C$P$GT$$u20$as$u20$core..iter..traits..iterator..Iterator$GT$4next5check28_$u7b$$u7b$closure$u7d$$u7d$17he21767f430dc75b6E"(ptr align 8 %_1, ptr align 4 %x) unnamed_addr #1 !dbg !1518 {
start:
  %x.dbg.spill = alloca [8 x i8], align 8
  %_1.dbg.spill = alloca [8 x i8], align 8
  %_0 = alloca [1 x i8], align 1
  store ptr %_1, ptr %_1.dbg.spill, align 8
    #dbg_declare(ptr %_1.dbg.spill, !1524, !DIExpression(DW_OP_deref), !1526)
    #dbg_declare(ptr %_1.dbg.spill, !1525, !DIExpression(DW_OP_deref, DW_OP_plus_uconst, 8), !1527)
  store ptr %x, ptr %x.dbg.spill, align 8
    #dbg_declare(ptr %x.dbg.spill, !1523, !DIExpression(), !1528)
  %_6 = load ptr, ptr %_1, align 8, !dbg !1529
  %0 = load i8, ptr %_6, align 1, !dbg !1529
  %_3 = trunc i8 %0 to i1, !dbg !1529
  br i1 %_3, label %bb4, label %bb1, !dbg !1529

bb1:                                              ; preds = %start
  %1 = getelementptr inbounds i8, ptr %_1, i64 8, !dbg !1530
  %_7 = load ptr, ptr %1, align 8, !dbg !1530
; call alloc::str::<impl str>::to_lowercase::case_ignorable_then_cased::{{closure}}
  %_4 = call zeroext i1 @"_ZN5alloc3str21_$LT$impl$u20$str$GT$12to_lowercase25case_ignorable_then_cased28_$u7b$$u7b$closure$u7d$$u7d$17h6ef02b37b9a12ce2E"(ptr align 1 %_7, ptr align 4 %x) #19, !dbg !1530
  br i1 %_4, label %bb3, label %bb4, !dbg !1530

bb4:                                              ; preds = %bb1, %start
  %_8 = load ptr, ptr %_1, align 8, !dbg !1531
  store i8 1, ptr %_8, align 1, !dbg !1531
  store i8 1, ptr %_0, align 1, !dbg !1532
  br label %bb5, !dbg !1533

bb3:                                              ; preds = %bb1
  store i8 0, ptr %_0, align 1, !dbg !1534
  br label %bb5, !dbg !1533

bb5:                                              ; preds = %bb4, %bb3
  %2 = load i8, ptr %_0, align 1, !dbg !1535
  %3 = trunc i8 %2 to i1, !dbg !1535
  ret i1 %3, !dbg !1535
}

; <core::ptr::non_null::NonNull<T> as core::convert::From<core::ptr::unique::Unique<T>>>::from
; Function Attrs: inlinehint noredzone nounwind
define dso_local ptr @"_ZN119_$LT$core..ptr..non_null..NonNull$LT$T$GT$$u20$as$u20$core..convert..From$LT$core..ptr..unique..Unique$LT$T$GT$$GT$$GT$4from17hffaef22b86024aceE"(ptr %unique) unnamed_addr #1 !dbg !1536 {
start:
  %unique.dbg.spill = alloca [8 x i8], align 8
  store ptr %unique, ptr %unique.dbg.spill, align 8
    #dbg_declare(ptr %unique.dbg.spill, !1541, !DIExpression(), !1542)
; call core::ptr::unique::Unique<T>::as_non_null_ptr
  %_0 = call ptr @"_ZN4core3ptr6unique15Unique$LT$T$GT$15as_non_null_ptr17h01259becb5e317e0E"(ptr %unique) #19, !dbg !1543
  ret ptr %_0, !dbg !1544
}

; <core::ptr::unique::Unique<T> as core::convert::From<core::ptr::non_null::NonNull<T>>>::from
; Function Attrs: inlinehint noredzone nounwind
define dso_local ptr @"_ZN119_$LT$core..ptr..unique..Unique$LT$T$GT$$u20$as$u20$core..convert..From$LT$core..ptr..non_null..NonNull$LT$T$GT$$GT$$GT$4from17hddeb5d4682d2c52eE"(ptr %pointer) unnamed_addr #1 !dbg !1545 {
start:
  %pointer.dbg.spill = alloca [8 x i8], align 8
  store ptr %pointer, ptr %pointer.dbg.spill, align 8
    #dbg_declare(ptr %pointer.dbg.spill, !1551, !DIExpression(), !1552)
  ret ptr %pointer, !dbg !1553
}

; <core::result::Result<V,E> as core::iter::traits::collect::FromIterator<core::result::Result<A,E>>>::from_iter
; Function Attrs: inlinehint noredzone nounwind
define dso_local void @"_ZN136_$LT$core..result..Result$LT$V$C$E$GT$$u20$as$u20$core..iter..traits..collect..FromIterator$LT$core..result..Result$LT$A$C$E$GT$$GT$$GT$9from_iter17h25f7d85e5ccf0ff4E"(ptr sret([24 x i8]) align 8 %_0, ptr align 8 %iter) unnamed_addr #1 !dbg !1554 {
start:
  %_2 = alloca [40 x i8], align 8
    #dbg_declare(ptr %iter, !1575, !DIExpression(), !1579)
; call <I as core::iter::traits::collect::IntoIterator>::into_iter
  call void @"_ZN63_$LT$I$u20$as$u20$core..iter..traits..collect..IntoIterator$GT$9into_iter17hfa8d03b5b32e6b82E"(ptr sret([40 x i8]) align 8 %_2, ptr align 8 %iter) #19, !dbg !1580
; call core::iter::adapters::try_process
  call void @_ZN4core4iter8adapters11try_process17hbcfc53cefae4d526E(ptr sret([24 x i8]) align 8 %_0, ptr align 8 %_2) #19, !dbg !1581
  ret void, !dbg !1582
}

; <core::result::Result<V,E> as core::iter::traits::collect::FromIterator<core::result::Result<A,E>>>::from_iter
; Function Attrs: inlinehint noredzone nounwind
define dso_local void @"_ZN136_$LT$core..result..Result$LT$V$C$E$GT$$u20$as$u20$core..iter..traits..collect..FromIterator$LT$core..result..Result$LT$A$C$E$GT$$GT$$GT$9from_iter17h35457f419b514e9dE"(ptr sret([24 x i8]) align 8 %_0, ptr align 8 %iter) unnamed_addr #1 !dbg !1583 {
start:
  %_2 = alloca [40 x i8], align 8
    #dbg_declare(ptr %iter, !1587, !DIExpression(), !1589)
; call <I as core::iter::traits::collect::IntoIterator>::into_iter
  call void @"_ZN63_$LT$I$u20$as$u20$core..iter..traits..collect..IntoIterator$GT$9into_iter17h2154cb9d0fbded29E"(ptr sret([40 x i8]) align 8 %_2, ptr align 8 %iter) #19, !dbg !1590
; call core::iter::adapters::try_process
  call void @_ZN4core4iter8adapters11try_process17hec6061fc37721b99E(ptr sret([24 x i8]) align 8 %_0, ptr align 8 %_2) #19, !dbg !1591
  ret void, !dbg !1592
}

; <core::result::Result<V,E> as core::iter::traits::collect::FromIterator<core::result::Result<A,E>>>::from_iter::{{closure}}
; Function Attrs: inlinehint noredzone nounwind
define dso_local void @"_ZN136_$LT$core..result..Result$LT$V$C$E$GT$$u20$as$u20$core..iter..traits..collect..FromIterator$LT$core..result..Result$LT$A$C$E$GT$$GT$$GT$9from_iter28_$u7b$$u7b$closure$u7d$$u7d$17h0461c4832ad24d56E"(ptr sret([24 x i8]) align 8 %_0, ptr align 1 %_1, ptr align 8 %i) unnamed_addr #1 !dbg !1593 {
start:
  %_1.dbg.spill = alloca [8 x i8], align 8
  store ptr %_1, ptr %_1.dbg.spill, align 8
    #dbg_declare(ptr %_1.dbg.spill, !1601, !DIExpression(), !1602)
    #dbg_declare(ptr %i, !1600, !DIExpression(), !1603)
; call core::iter::traits::iterator::Iterator::collect
  call void @_ZN4core4iter6traits8iterator8Iterator7collect17h2befd31383be27e3E(ptr sret([24 x i8]) align 8 %_0, ptr align 8 %i) #19, !dbg !1604
  ret void, !dbg !1605
}

; <core::result::Result<V,E> as core::iter::traits::collect::FromIterator<core::result::Result<A,E>>>::from_iter::{{closure}}
; Function Attrs: inlinehint noredzone nounwind
define dso_local void @"_ZN136_$LT$core..result..Result$LT$V$C$E$GT$$u20$as$u20$core..iter..traits..collect..FromIterator$LT$core..result..Result$LT$A$C$E$GT$$GT$$GT$9from_iter28_$u7b$$u7b$closure$u7d$$u7d$17h97273b0d57d9a248E"(ptr sret([24 x i8]) align 8 %_0, ptr align 1 %_1, ptr align 8 %i) unnamed_addr #1 !dbg !1606 {
start:
  %_1.dbg.spill = alloca [8 x i8], align 8
  store ptr %_1, ptr %_1.dbg.spill, align 8
    #dbg_declare(ptr %_1.dbg.spill, !1613, !DIExpression(), !1614)
    #dbg_declare(ptr %i, !1612, !DIExpression(), !1615)
; call core::iter::traits::iterator::Iterator::collect
  call void @_ZN4core4iter6traits8iterator8Iterator7collect17he04e4d310b13a522E(ptr sret([24 x i8]) align 8 %_0, ptr align 8 %i) #19, !dbg !1616
  ret void, !dbg !1617
}

; <core::option::Option<T> as core::ops::try_trait::FromResidual<core::option::Option<core::convert::Infallible>>>::from_residual
; Function Attrs: inlinehint noredzone nounwind
define dso_local i64 @"_ZN145_$LT$core..option..Option$LT$T$GT$$u20$as$u20$core..ops..try_trait..FromResidual$LT$core..option..Option$LT$core..convert..Infallible$GT$$GT$$GT$13from_residual17h957699daba411201E"() unnamed_addr #1 !dbg !1618 {
start:
  %residual.dbg.spill = alloca [0 x i8], align 1
  %_1.dbg.spill = alloca [0 x i8], align 1
  %_0 = alloca [8 x i8], align 4
    #dbg_declare(ptr %_1.dbg.spill, !1649, !DIExpression(), !1650)
    #dbg_declare(ptr %residual.dbg.spill, !1648, !DIExpression(), !1650)
  store i16 2, ptr %_0, align 4, !dbg !1651
  %0 = load i64, ptr %_0, align 4, !dbg !1652
  ret i64 %0, !dbg !1652
}

; <core::result::Result<T,F> as core::ops::try_trait::FromResidual<core::result::Result<core::convert::Infallible,E>>>::from_residual
; Function Attrs: inlinehint noredzone nounwind
define dso_local { ptr, i64 } @"_ZN153_$LT$core..result..Result$LT$T$C$F$GT$$u20$as$u20$core..ops..try_trait..FromResidual$LT$core..result..Result$LT$core..convert..Infallible$C$E$GT$$GT$$GT$13from_residual17h02b0ecdf0f2b0383E"(ptr align 8 %0) unnamed_addr #1 !dbg !1653 {
start:
  %e.dbg.spill = alloca [0 x i8], align 1
  %residual.dbg.spill = alloca [0 x i8], align 1
  %_0 = alloca [16 x i8], align 8
    #dbg_declare(ptr %residual.dbg.spill, !1699, !DIExpression(), !1704)
    #dbg_declare(ptr %e.dbg.spill, !1700, !DIExpression(), !1705)
    #dbg_declare(ptr undef, !1706, !DIExpression(), !1715)
  store ptr null, ptr %_0, align 8, !dbg !1717
  %1 = load ptr, ptr %_0, align 8, !dbg !1718
  %2 = getelementptr inbounds i8, ptr %_0, i64 8, !dbg !1718
  %3 = load i64, ptr %2, align 8, !dbg !1718
  %4 = insertvalue { ptr, i64 } poison, ptr %1, 0, !dbg !1718
  %5 = insertvalue { ptr, i64 } %4, i64 %3, 1, !dbg !1718
  ret { ptr, i64 } %5, !dbg !1718
}

; <core::result::Result<T,F> as core::ops::try_trait::FromResidual<core::result::Result<core::convert::Infallible,E>>>::from_residual
; Function Attrs: inlinehint noredzone nounwind
define dso_local { i64, i64 } @"_ZN153_$LT$core..result..Result$LT$T$C$F$GT$$u20$as$u20$core..ops..try_trait..FromResidual$LT$core..result..Result$LT$core..convert..Infallible$C$E$GT$$GT$$GT$13from_residual17h33f1e92ae445a6e0E"(i64 %0, i64 %1, ptr align 8 %2) unnamed_addr #1 !dbg !1719 {
start:
  %e.dbg.spill = alloca [16 x i8], align 8
  %_0 = alloca [16 x i8], align 8
  %residual = alloca [16 x i8], align 8
  store i64 %0, ptr %residual, align 8
  %3 = getelementptr inbounds i8, ptr %residual, i64 8
  store i64 %1, ptr %3, align 8
    #dbg_declare(ptr %residual, !1775, !DIExpression(), !1780)
  %e.0 = load i64, ptr %residual, align 8, !dbg !1781
  %4 = getelementptr inbounds i8, ptr %residual, i64 8, !dbg !1781
  %e.1 = load i64, ptr %4, align 8, !dbg !1781
  store i64 %e.0, ptr %e.dbg.spill, align 8, !dbg !1781
  %5 = getelementptr inbounds i8, ptr %e.dbg.spill, i64 8, !dbg !1781
  store i64 %e.1, ptr %5, align 8, !dbg !1781
    #dbg_declare(ptr %e.dbg.spill, !1776, !DIExpression(), !1782)
; call <alloc::collections::TryReserveError as core::convert::From<alloc::collections::TryReserveErrorKind>>::from
  %6 = call { i64, i64 } @"_ZN122_$LT$alloc..collections..TryReserveError$u20$as$u20$core..convert..From$LT$alloc..collections..TryReserveErrorKind$GT$$GT$4from17hf2f6d2c9f90567a2E"(i64 %e.0, i64 %e.1) #19, !dbg !1783
  %_3.0 = extractvalue { i64, i64 } %6, 0, !dbg !1783
  %_3.1 = extractvalue { i64, i64 } %6, 1, !dbg !1783
  store i64 %_3.0, ptr %_0, align 8, !dbg !1784
  %7 = getelementptr inbounds i8, ptr %_0, i64 8, !dbg !1784
  store i64 %_3.1, ptr %7, align 8, !dbg !1784
  %8 = load i64, ptr %_0, align 8, !dbg !1785
  %9 = getelementptr inbounds i8, ptr %_0, i64 8, !dbg !1785
  %10 = load i64, ptr %9, align 8, !dbg !1785
  %11 = insertvalue { i64, i64 } poison, i64 %8, 0, !dbg !1785
  %12 = insertvalue { i64, i64 } %11, i64 %10, 1, !dbg !1785
  ret { i64, i64 } %12, !dbg !1785
}

; <core::result::Result<T,F> as core::ops::try_trait::FromResidual<core::result::Result<core::convert::Infallible,E>>>::from_residual
; Function Attrs: inlinehint noredzone nounwind
define dso_local { i64, i64 } @"_ZN153_$LT$core..result..Result$LT$T$C$F$GT$$u20$as$u20$core..ops..try_trait..FromResidual$LT$core..result..Result$LT$core..convert..Infallible$C$E$GT$$GT$$GT$13from_residual17h5d0f62b03e05f3c2E"(i64 %0, i64 %1, ptr align 8 %2) unnamed_addr #1 !dbg !1786 {
start:
  %t.dbg.spill.i = alloca [16 x i8], align 8
  %e.dbg.spill = alloca [16 x i8], align 8
  %_0 = alloca [16 x i8], align 8
  %residual = alloca [16 x i8], align 8
  store i64 %0, ptr %residual, align 8
  %3 = getelementptr inbounds i8, ptr %residual, i64 8
  store i64 %1, ptr %3, align 8
    #dbg_declare(ptr %residual, !1803, !DIExpression(), !1807)
  %e.0 = load i64, ptr %residual, align 8, !dbg !1808
  %4 = getelementptr inbounds i8, ptr %residual, i64 8, !dbg !1808
  %e.1 = load i64, ptr %4, align 8, !dbg !1808
  store i64 %e.0, ptr %e.dbg.spill, align 8, !dbg !1808
  %5 = getelementptr inbounds i8, ptr %e.dbg.spill, i64 8, !dbg !1808
  store i64 %e.1, ptr %5, align 8, !dbg !1808
    #dbg_declare(ptr %e.dbg.spill, !1804, !DIExpression(), !1809)
  store i64 %e.0, ptr %t.dbg.spill.i, align 8
  %6 = getelementptr inbounds i8, ptr %t.dbg.spill.i, i64 8
  store i64 %e.1, ptr %6, align 8
    #dbg_declare(ptr %t.dbg.spill.i, !1810, !DIExpression(), !1817)
  %7 = insertvalue { i64, i64 } poison, i64 %e.0, 0, !dbg !1819
  %8 = insertvalue { i64, i64 } %7, i64 %e.1, 1, !dbg !1819
  %_3.0 = extractvalue { i64, i64 } %8, 0, !dbg !1820
  %_3.1 = extractvalue { i64, i64 } %8, 1, !dbg !1820
  store i64 %_3.0, ptr %_0, align 8, !dbg !1821
  %9 = getelementptr inbounds i8, ptr %_0, i64 8, !dbg !1821
  store i64 %_3.1, ptr %9, align 8, !dbg !1821
  %10 = load i64, ptr %_0, align 8, !dbg !1822
  %11 = getelementptr inbounds i8, ptr %_0, i64 8, !dbg !1822
  %12 = load i64, ptr %11, align 8, !dbg !1822
  %13 = insertvalue { i64, i64 } poison, i64 %10, 0, !dbg !1822
  %14 = insertvalue { i64, i64 } %13, i64 %12, 1, !dbg !1822
  ret { i64, i64 } %14, !dbg !1822
}

; <core::result::Result<T,F> as core::ops::try_trait::FromResidual<core::result::Result<core::convert::Infallible,E>>>::from_residual
; Function Attrs: inlinehint noredzone nounwind
define dso_local void @"_ZN153_$LT$core..result..Result$LT$T$C$F$GT$$u20$as$u20$core..ops..try_trait..FromResidual$LT$core..result..Result$LT$core..convert..Infallible$C$E$GT$$GT$$GT$13from_residual17hb909015815a5ee67E"(ptr sret([24 x i8]) align 8 %_0, i16 zeroext %0, ptr align 8 %1) unnamed_addr #1 !dbg !1823 {
start:
  %t.dbg.spill.i = alloca [2 x i8], align 2
  %e.dbg.spill = alloca [2 x i8], align 2
  %residual = alloca [2 x i8], align 2
  store i16 %0, ptr %residual, align 2
    #dbg_declare(ptr %residual, !1827, !DIExpression(), !1832)
  %e = load i16, ptr %residual, align 2, !dbg !1833
  store i16 %e, ptr %e.dbg.spill, align 2, !dbg !1833
    #dbg_declare(ptr %e.dbg.spill, !1828, !DIExpression(), !1834)
  store i16 %e, ptr %t.dbg.spill.i, align 2
    #dbg_declare(ptr %t.dbg.spill.i, !1835, !DIExpression(), !1842)
  %2 = getelementptr inbounds i8, ptr %_0, i64 8, !dbg !1844
  store i16 %e, ptr %2, align 8, !dbg !1844
  store i64 -9223372036854775808, ptr %_0, align 8, !dbg !1844
  ret void, !dbg !1845
}

; <core::result::Result<T,F> as core::ops::try_trait::FromResidual<core::result::Result<core::convert::Infallible,E>>>::from_residual
; Function Attrs: inlinehint noredzone nounwind
define dso_local void @"_ZN153_$LT$core..result..Result$LT$T$C$F$GT$$u20$as$u20$core..ops..try_trait..FromResidual$LT$core..result..Result$LT$core..convert..Infallible$C$E$GT$$GT$$GT$13from_residual17hdbba48e631aaff81E"(ptr sret([24 x i8]) align 8 %_0, i64 %0, i64 %1, ptr align 8 %2) unnamed_addr #1 !dbg !1846 {
start:
  %t.dbg.spill.i = alloca [16 x i8], align 8
  %e.dbg.spill = alloca [16 x i8], align 8
  %residual = alloca [16 x i8], align 8
  store i64 %0, ptr %residual, align 8
  %3 = getelementptr inbounds i8, ptr %residual, i64 8
  store i64 %1, ptr %3, align 8
    #dbg_declare(ptr %residual, !1864, !DIExpression(), !1868)
  %e.0 = load i64, ptr %residual, align 8, !dbg !1869
  %4 = getelementptr inbounds i8, ptr %residual, i64 8, !dbg !1869
  %e.1 = load i64, ptr %4, align 8, !dbg !1869
  store i64 %e.0, ptr %e.dbg.spill, align 8, !dbg !1869
  %5 = getelementptr inbounds i8, ptr %e.dbg.spill, i64 8, !dbg !1869
  store i64 %e.1, ptr %5, align 8, !dbg !1869
    #dbg_declare(ptr %e.dbg.spill, !1865, !DIExpression(), !1870)
  store i64 %e.0, ptr %t.dbg.spill.i, align 8
  %6 = getelementptr inbounds i8, ptr %t.dbg.spill.i, i64 8
  store i64 %e.1, ptr %6, align 8
    #dbg_declare(ptr %t.dbg.spill.i, !1810, !DIExpression(), !1871)
  %7 = insertvalue { i64, i64 } poison, i64 %e.0, 0, !dbg !1873
  %8 = insertvalue { i64, i64 } %7, i64 %e.1, 1, !dbg !1873
  %_3.0 = extractvalue { i64, i64 } %8, 0, !dbg !1874
  %_3.1 = extractvalue { i64, i64 } %8, 1, !dbg !1874
  %9 = getelementptr inbounds i8, ptr %_0, i64 8, !dbg !1875
  store i64 %_3.0, ptr %9, align 8, !dbg !1875
  %10 = getelementptr inbounds i8, ptr %9, i64 8, !dbg !1875
  store i64 %_3.1, ptr %10, align 8, !dbg !1875
  store i64 1, ptr %_0, align 8, !dbg !1875
  ret void, !dbg !1876
}

; <core::ops::try_trait::NeverShortCircuit<T> as core::ops::try_trait::FromResidual<core::ops::try_trait::NeverShortCircuitResidual>>::from_residual
; Function Attrs: inlinehint noredzone nounwind
define dso_local void @"_ZN158_$LT$core..ops..try_trait..NeverShortCircuit$LT$T$GT$$u20$as$u20$core..ops..try_trait..FromResidual$LT$core..ops..try_trait..NeverShortCircuitResidual$GT$$GT$13from_residual17hda002c82c25223a6E"() unnamed_addr #1 !dbg !1877 {
start:
  %never.dbg.spill = alloca [0 x i8], align 1
  %_1.dbg.spill = alloca [0 x i8], align 1
    #dbg_declare(ptr %_1.dbg.spill, !1887, !DIExpression(), !1888)
    #dbg_declare(ptr %never.dbg.spill, !1886, !DIExpression(), !1888)
  unreachable, !dbg !1889
}

; <core::ops::control_flow::ControlFlow<B,C> as core::ops::try_trait::FromResidual<core::ops::control_flow::ControlFlow<B,core::convert::Infallible>>>::from_residual
; Function Attrs: inlinehint noredzone nounwind
define dso_local zeroext i1 @"_ZN185_$LT$core..ops..control_flow..ControlFlow$LT$B$C$C$GT$$u20$as$u20$core..ops..try_trait..FromResidual$LT$core..ops..control_flow..ControlFlow$LT$B$C$core..convert..Infallible$GT$$GT$$GT$13from_residual17h0ddc44c50adc7e18E"() unnamed_addr #1 !dbg !1890 {
start:
  %b.dbg.spill = alloca [0 x i8], align 1
  %residual.dbg.spill = alloca [0 x i8], align 1
  %_0 = alloca [1 x i8], align 1
    #dbg_declare(ptr %residual.dbg.spill, !1910, !DIExpression(), !1913)
    #dbg_declare(ptr %b.dbg.spill, !1911, !DIExpression(), !1914)
  store i8 1, ptr %_0, align 1, !dbg !1915
  %0 = load i8, ptr %_0, align 1, !dbg !1916
  %1 = trunc i8 %0 to i1, !dbg !1916
  ret i1 %1, !dbg !1916
}

; <core::ops::control_flow::ControlFlow<B,C> as core::ops::try_trait::FromResidual<core::ops::control_flow::ControlFlow<B,core::convert::Infallible>>>::from_residual
; Function Attrs: inlinehint noredzone nounwind
define dso_local i32 @"_ZN185_$LT$core..ops..control_flow..ControlFlow$LT$B$C$C$GT$$u20$as$u20$core..ops..try_trait..FromResidual$LT$core..ops..control_flow..ControlFlow$LT$B$C$core..convert..Infallible$GT$$GT$$GT$13from_residual17h877cb5f984e65f0cE"(i32 signext %0) unnamed_addr #1 !dbg !1917 {
start:
  %b.dbg.spill = alloca [4 x i8], align 4
  %_0 = alloca [4 x i8], align 4
  %residual = alloca [4 x i8], align 4
  store i32 %0, ptr %residual, align 4
    #dbg_declare(ptr %residual, !1948, !DIExpression(), !1951)
  %b = load i32, ptr %residual, align 4, !dbg !1952
  store i32 %b, ptr %b.dbg.spill, align 4, !dbg !1952
    #dbg_declare(ptr %b.dbg.spill, !1949, !DIExpression(), !1953)
  store i32 %b, ptr %_0, align 4, !dbg !1954
  %1 = load i32, ptr %_0, align 4, !dbg !1955
  ret i32 %1, !dbg !1955
}

; <&T as core::fmt::Debug>::fmt
; Function Attrs: noredzone nounwind
define dso_local zeroext i1 @"_ZN42_$LT$$RF$T$u20$as$u20$core..fmt..Debug$GT$3fmt17h54ac28b3a129e867E"(ptr align 8 %self, ptr align 8 %f) unnamed_addr #0 !dbg !1956 {
start:
  %f.dbg.spill = alloca [8 x i8], align 8
  %self.dbg.spill = alloca [8 x i8], align 8
  store ptr %self, ptr %self.dbg.spill, align 8
    #dbg_declare(ptr %self.dbg.spill, !2013, !DIExpression(), !2015)
  store ptr %f, ptr %f.dbg.spill, align 8
    #dbg_declare(ptr %f.dbg.spill, !2014, !DIExpression(), !2016)
  %_3 = load ptr, ptr %self, align 8, !dbg !2017
; call core::fmt::num::<impl core::fmt::Debug for u8>::fmt
  %_0 = call zeroext i1 @"_ZN4core3fmt3num49_$LT$impl$u20$core..fmt..Debug$u20$for$u20$u8$GT$3fmt17h9607ef3dfbebba9bE"(ptr align 1 %_3, ptr align 8 %f) #19, !dbg !2018
  ret i1 %_0, !dbg !2019
}

; <&T as core::fmt::Debug>::fmt
; Function Attrs: noredzone nounwind
define dso_local zeroext i1 @"_ZN42_$LT$$RF$T$u20$as$u20$core..fmt..Debug$GT$3fmt17hb01e2dcb36eedd7cE"(ptr align 8 %self, ptr align 8 %f) unnamed_addr #0 !dbg !2020 {
start:
  %f.dbg.spill = alloca [8 x i8], align 8
  %self.dbg.spill = alloca [8 x i8], align 8
  store ptr %self, ptr %self.dbg.spill, align 8
    #dbg_declare(ptr %self.dbg.spill, !2025, !DIExpression(), !2029)
  store ptr %f, ptr %f.dbg.spill, align 8
    #dbg_declare(ptr %f.dbg.spill, !2026, !DIExpression(), !2030)
  %_3 = load ptr, ptr %self, align 8, !dbg !2031
; call <core::option::Option<T> as core::fmt::Debug>::fmt
  %_0 = call zeroext i1 @"_ZN66_$LT$core..option..Option$LT$T$GT$$u20$as$u20$core..fmt..Debug$GT$3fmt17h477141b2a8c92ce7E"(ptr align 1 %_3, ptr align 8 %f) #19, !dbg !2032
  ret i1 %_0, !dbg !2033
}

; <&T as core::fmt::Debug>::fmt
; Function Attrs: noredzone nounwind
define dso_local zeroext i1 @"_ZN42_$LT$$RF$T$u20$as$u20$core..fmt..Debug$GT$3fmt17hce3520abf5f196dbE"(ptr align 8 %self, ptr align 8 %f) unnamed_addr #0 !dbg !2034 {
start:
  %f.dbg.spill = alloca [8 x i8], align 8
  %self.dbg.spill = alloca [8 x i8], align 8
  store ptr %self, ptr %self.dbg.spill, align 8
    #dbg_declare(ptr %self.dbg.spill, !2038, !DIExpression(), !2040)
  store ptr %f, ptr %f.dbg.spill, align 8
    #dbg_declare(ptr %f.dbg.spill, !2039, !DIExpression(), !2041)
  %_3.0 = load ptr, ptr %self, align 8, !dbg !2042
  %0 = getelementptr inbounds i8, ptr %self, i64 8, !dbg !2042
  %_3.1 = load i64, ptr %0, align 8, !dbg !2042
; call <str as core::fmt::Debug>::fmt
  %_0 = call zeroext i1 @"_ZN40_$LT$str$u20$as$u20$core..fmt..Debug$GT$3fmt17h3e78d225f156be20E"(ptr align 1 %_3.0, i64 %_3.1, ptr align 8 %f) #19, !dbg !2043
  ret i1 %_0, !dbg !2044
}

; core::intrinsics::write_bytes::precondition_check
; Function Attrs: inlinehint noredzone nounwind
define internal void @_ZN4core10intrinsics11write_bytes18precondition_check17he7d582f03055b4ecE(ptr %addr, i64 %align, i1 zeroext %zero_size) unnamed_addr #1 !dbg !2045 {
start:
  %zero_size.dbg.spill = alloca [1 x i8], align 1
  %align.dbg.spill = alloca [8 x i8], align 8
  %addr.dbg.spill = alloca [8 x i8], align 8
  store ptr %addr, ptr %addr.dbg.spill, align 8
    #dbg_declare(ptr %addr.dbg.spill, !2051, !DIExpression(), !2054)
  store i64 %align, ptr %align.dbg.spill, align 8
    #dbg_declare(ptr %align.dbg.spill, !2052, !DIExpression(), !2054)
  %0 = zext i1 %zero_size to i8
  store i8 %0, ptr %zero_size.dbg.spill, align 1
    #dbg_declare(ptr %zero_size.dbg.spill, !2053, !DIExpression(), !2054)
; call core::ub_checks::maybe_is_aligned_and_not_null
  %_4 = call zeroext i1 @_ZN4core9ub_checks29maybe_is_aligned_and_not_null17h6643f32b77cc48d8E(ptr %addr, i64 %align, i1 zeroext %zero_size) #19, !dbg !2055
  br i1 %_4, label %bb2, label %bb3, !dbg !2055

bb3:                                              ; preds = %start
; call core::panicking::panic_nounwind
  call void @_ZN4core9panicking14panic_nounwind17hfc993481fff279c3E(ptr align 1 @alloc_424341b75ece3fa20496f1c69b9fb0ac, i64 111) #20, !dbg !2058
  unreachable, !dbg !2058

bb2:                                              ; preds = %start
  ret void, !dbg !2059
}

; core::intrinsics::copy_nonoverlapping::precondition_check
; Function Attrs: inlinehint noredzone nounwind
define internal void @_ZN4core10intrinsics19copy_nonoverlapping18precondition_check17h6ecae3d14bae3163E(ptr %src, ptr %dst, i64 %size, i64 %align, i64 %count) unnamed_addr #1 !dbg !2060 {
start:
  %count.dbg.spill = alloca [8 x i8], align 8
  %align.dbg.spill = alloca [8 x i8], align 8
  %size.dbg.spill = alloca [8 x i8], align 8
  %dst.dbg.spill = alloca [8 x i8], align 8
  %src.dbg.spill = alloca [8 x i8], align 8
  %zero_size = alloca [1 x i8], align 1
  %_6 = alloca [1 x i8], align 1
  store ptr %src, ptr %src.dbg.spill, align 8
    #dbg_declare(ptr %src.dbg.spill, !2066, !DIExpression(), !2073)
  store ptr %dst, ptr %dst.dbg.spill, align 8
    #dbg_declare(ptr %dst.dbg.spill, !2067, !DIExpression(), !2073)
  store i64 %size, ptr %size.dbg.spill, align 8
    #dbg_declare(ptr %size.dbg.spill, !2068, !DIExpression(), !2073)
  store i64 %align, ptr %align.dbg.spill, align 8
    #dbg_declare(ptr %align.dbg.spill, !2069, !DIExpression(), !2073)
  store i64 %count, ptr %count.dbg.spill, align 8
    #dbg_declare(ptr %count.dbg.spill, !2070, !DIExpression(), !2073)
    #dbg_declare(ptr %zero_size, !2071, !DIExpression(), !2074)
  %0 = icmp eq i64 %count, 0, !dbg !2075
  br i1 %0, label %bb1, label %bb2, !dbg !2075

bb1:                                              ; preds = %start
  store i8 1, ptr %zero_size, align 1, !dbg !2075
  br label %bb3, !dbg !2075

bb2:                                              ; preds = %start
  %1 = icmp eq i64 %size, 0, !dbg !2077
  %2 = zext i1 %1 to i8, !dbg !2077
  store i8 %2, ptr %zero_size, align 1, !dbg !2077
  br label %bb3, !dbg !2075

bb3:                                              ; preds = %bb2, %bb1
  %3 = load i8, ptr %zero_size, align 1, !dbg !2078
  %_9 = trunc i8 %3 to i1, !dbg !2078
; call core::ub_checks::maybe_is_aligned_and_not_null
  %_8 = call zeroext i1 @_ZN4core9ub_checks29maybe_is_aligned_and_not_null17h6643f32b77cc48d8E(ptr %src, i64 %align, i1 zeroext %_9) #19, !dbg !2079
  br i1 %_8, label %bb5, label %bb8, !dbg !2079

bb8:                                              ; preds = %bb5, %bb3
  store i8 0, ptr %_6, align 1, !dbg !2079
  br label %bb9, !dbg !2079

bb5:                                              ; preds = %bb3
  %4 = load i8, ptr %zero_size, align 1, !dbg !2080
  %_12 = trunc i8 %4 to i1, !dbg !2080
; call core::ub_checks::maybe_is_aligned_and_not_null
  %_10 = call zeroext i1 @_ZN4core9ub_checks29maybe_is_aligned_and_not_null17h6643f32b77cc48d8E(ptr %dst, i64 %align, i1 zeroext %_12) #19, !dbg !2081
  br i1 %_10, label %bb7, label %bb8, !dbg !2081

bb7:                                              ; preds = %bb5
; call core::ub_checks::maybe_is_nonoverlapping
  %5 = call zeroext i1 @_ZN4core9ub_checks23maybe_is_nonoverlapping17h52b29ba9de20a021E(ptr %src, ptr %dst, i64 %size, i64 %count) #19, !dbg !2082
  %6 = zext i1 %5 to i8, !dbg !2082
  store i8 %6, ptr %_6, align 1, !dbg !2082
  br label %bb9, !dbg !2082

bb9:                                              ; preds = %bb7, %bb8
  %7 = load i8, ptr %_6, align 1, !dbg !2083
  %8 = trunc i8 %7 to i1, !dbg !2083
  br i1 %8, label %bb11, label %bb10, !dbg !2083

bb10:                                             ; preds = %bb9
; call core::panicking::panic_nounwind
  call void @_ZN4core9panicking14panic_nounwind17hfc993481fff279c3E(ptr align 1 @alloc_8df0580a595a87d56789d20c7318e185, i64 166) #20, !dbg !2084
  unreachable, !dbg !2084

bb11:                                             ; preds = %bb9
  ret void, !dbg !2085
}

; core::intrinsics::copy::precondition_check
; Function Attrs: inlinehint noredzone nounwind
define internal void @_ZN4core10intrinsics4copy18precondition_check17h22f1a0946e134f3bE(ptr %src, ptr %dst, i64 %align, i1 zeroext %zero_size) unnamed_addr #1 !dbg !2086 {
start:
  %zero_size.dbg.spill = alloca [1 x i8], align 1
  %align.dbg.spill = alloca [8 x i8], align 8
  %dst.dbg.spill = alloca [8 x i8], align 8
  %src.dbg.spill = alloca [8 x i8], align 8
  store ptr %src, ptr %src.dbg.spill, align 8
    #dbg_declare(ptr %src.dbg.spill, !2091, !DIExpression(), !2095)
  store ptr %dst, ptr %dst.dbg.spill, align 8
    #dbg_declare(ptr %dst.dbg.spill, !2092, !DIExpression(), !2095)
  store i64 %align, ptr %align.dbg.spill, align 8
    #dbg_declare(ptr %align.dbg.spill, !2093, !DIExpression(), !2095)
  %0 = zext i1 %zero_size to i8
  store i8 %0, ptr %zero_size.dbg.spill, align 1
    #dbg_declare(ptr %zero_size.dbg.spill, !2094, !DIExpression(), !2095)
; call core::ub_checks::maybe_is_aligned_and_not_null
  %_5 = call zeroext i1 @_ZN4core9ub_checks29maybe_is_aligned_and_not_null17h6643f32b77cc48d8E(ptr %src, i64 %align, i1 zeroext %zero_size) #19, !dbg !2096
  br i1 %_5, label %bb2, label %bb5, !dbg !2096

bb5:                                              ; preds = %bb2, %start
; call core::panicking::panic_nounwind
  call void @_ZN4core9panicking14panic_nounwind17hfc993481fff279c3E(ptr align 1 @alloc_2f5fae7ca9908dec8d13988b47dc9dc4, i64 104) #20, !dbg !2098
  unreachable, !dbg !2098

bb2:                                              ; preds = %start
; call core::ub_checks::maybe_is_aligned_and_not_null
  %_6 = call zeroext i1 @_ZN4core9ub_checks29maybe_is_aligned_and_not_null17h6643f32b77cc48d8E(ptr %dst, i64 %align, i1 zeroext %zero_size) #19, !dbg !2099
  br i1 %_6, label %bb4, label %bb5, !dbg !2099

bb4:                                              ; preds = %bb2
  ret void, !dbg !2100
}

; core::intrinsics::cold_path
; Function Attrs: cold noredzone nounwind
define internal void @_ZN4core10intrinsics9cold_path17h7bc7d849f0520b83E() unnamed_addr #2 !dbg !2101 {
start:
  ret void, !dbg !2104
}

; core::any::TypeId::of
; Function Attrs: noredzone nounwind
define dso_local { i64, i64 } @_ZN4core3any6TypeId2of17h800f12e433303fc0E() unnamed_addr #0 !dbg !2105 {
start:
  %t2.dbg.spill = alloca [8 x i8], align 8
  %t1.dbg.spill = alloca [8 x i8], align 8
  %t.dbg.spill = alloca [16 x i8], align 16
  %0 = alloca [16 x i8], align 16
  store i128 -17397807898473685372772643467316910836, ptr %0, align 16, !dbg !2128
  %t = load i128, ptr %0, align 16, !dbg !2128
  store i128 %t, ptr %t.dbg.spill, align 16, !dbg !2128
    #dbg_declare(ptr %t.dbg.spill, !2121, !DIExpression(), !2129)
  %_3 = lshr i128 %t, 64, !dbg !2130
  %t1 = trunc i128 %_3 to i64, !dbg !2130
  store i64 %t1, ptr %t1.dbg.spill, align 8, !dbg !2130
    #dbg_declare(ptr %t1.dbg.spill, !2124, !DIExpression(), !2131)
  %t2 = trunc i128 %t to i64, !dbg !2132
  store i64 %t2, ptr %t2.dbg.spill, align 8, !dbg !2132
    #dbg_declare(ptr %t2.dbg.spill, !2126, !DIExpression(), !2133)
  %1 = insertvalue { i64, i64 } poison, i64 %t1, 0, !dbg !2134
  %2 = insertvalue { i64, i64 } %1, i64 %t2, 1, !dbg !2134
  ret { i64, i64 } %2, !dbg !2134
}

; core::any::TypeId::of
; Function Attrs: noredzone nounwind
define dso_local { i64, i64 } @_ZN4core3any6TypeId2of17hb25573cdebddc43eE() unnamed_addr #0 !dbg !2135 {
start:
  %t2.dbg.spill = alloca [8 x i8], align 8
  %t1.dbg.spill = alloca [8 x i8], align 8
  %t.dbg.spill = alloca [16 x i8], align 16
  %0 = alloca [16 x i8], align 16
  store i128 -41764715735603895522320874518445042123, ptr %0, align 16, !dbg !2146
  %t = load i128, ptr %0, align 16, !dbg !2146
  store i128 %t, ptr %t.dbg.spill, align 16, !dbg !2146
    #dbg_declare(ptr %t.dbg.spill, !2140, !DIExpression(), !2147)
  %_3 = lshr i128 %t, 64, !dbg !2148
  %t1 = trunc i128 %_3 to i64, !dbg !2148
  store i64 %t1, ptr %t1.dbg.spill, align 8, !dbg !2148
    #dbg_declare(ptr %t1.dbg.spill, !2142, !DIExpression(), !2149)
  %t2 = trunc i128 %t to i64, !dbg !2150
  store i64 %t2, ptr %t2.dbg.spill, align 8, !dbg !2150
    #dbg_declare(ptr %t2.dbg.spill, !2144, !DIExpression(), !2151)
  %1 = insertvalue { i64, i64 } poison, i64 %t1, 0, !dbg !2152
  %2 = insertvalue { i64, i64 } %1, i64 %t2, 1, !dbg !2152
  ret { i64, i64 } %2, !dbg !2152
}

; core::cmp::impls::<impl core::cmp::PartialEq for u8>::eq
; Function Attrs: inlinehint noredzone nounwind
define internal zeroext i1 @"_ZN4core3cmp5impls53_$LT$impl$u20$core..cmp..PartialEq$u20$for$u20$u8$GT$2eq17h32b2d2bf6c473d80E"(ptr align 1 %self, ptr align 1 %other) unnamed_addr #1 !dbg !2153 {
start:
  %other.dbg.spill = alloca [8 x i8], align 8
  %self.dbg.spill = alloca [8 x i8], align 8
  store ptr %self, ptr %self.dbg.spill, align 8
    #dbg_declare(ptr %self.dbg.spill, !2161, !DIExpression(), !2163)
  store ptr %other, ptr %other.dbg.spill, align 8
    #dbg_declare(ptr %other.dbg.spill, !2162, !DIExpression(), !2164)
  %_3 = load i8, ptr %self, align 1, !dbg !2165
  %_4 = load i8, ptr %other, align 1, !dbg !2166
  %_0 = icmp eq i8 %_3, %_4, !dbg !2165
  ret i1 %_0, !dbg !2167
}

; core::cmp::impls::<impl core::cmp::PartialEq for usize>::eq
; Function Attrs: inlinehint noredzone nounwind
define internal zeroext i1 @"_ZN4core3cmp5impls56_$LT$impl$u20$core..cmp..PartialEq$u20$for$u20$usize$GT$2eq17h614f779dfc56329fE"(ptr align 8 %self, ptr align 8 %other) unnamed_addr #1 !dbg !2168 {
start:
  %other.dbg.spill = alloca [8 x i8], align 8
  %self.dbg.spill = alloca [8 x i8], align 8
  store ptr %self, ptr %self.dbg.spill, align 8
    #dbg_declare(ptr %self.dbg.spill, !2174, !DIExpression(), !2176)
  store ptr %other, ptr %other.dbg.spill, align 8
    #dbg_declare(ptr %other.dbg.spill, !2175, !DIExpression(), !2177)
  %_3 = load i64, ptr %self, align 8, !dbg !2178
  %_4 = load i64, ptr %other, align 8, !dbg !2179
  %_0 = icmp eq i64 %_3, %_4, !dbg !2178
  ret i1 %_0, !dbg !2180
}

; core::ffi::c_str::CStr::to_bytes_with_nul
; Function Attrs: inlinehint noredzone nounwind
define internal { ptr, i64 } @_ZN4core3ffi5c_str4CStr17to_bytes_with_nul17haf7b1cd4724fd351E(ptr align 1 %self.0, i64 %self.1) unnamed_addr #1 !dbg !2181 {
start:
  %self.dbg.spill = alloca [16 x i8], align 8
  store ptr %self.0, ptr %self.dbg.spill, align 8
  %0 = getelementptr inbounds i8, ptr %self.dbg.spill, i64 8
  store i64 %self.1, ptr %0, align 8
    #dbg_declare(ptr %self.dbg.spill, !2197, !DIExpression(), !2198)
  %1 = insertvalue { ptr, i64 } poison, ptr %self.0, 0, !dbg !2199
  %2 = insertvalue { ptr, i64 } %1, i64 %self.1, 1, !dbg !2199
  ret { ptr, i64 } %2, !dbg !2199
}

; core::ffi::c_str::CStr::from_bytes_with_nul_unchecked
; Function Attrs: inlinehint noredzone nounwind
define internal { ptr, i64 } @_ZN4core3ffi5c_str4CStr29from_bytes_with_nul_unchecked17ha6543f6aaea04575E(ptr align 1 %bytes.0, i64 %bytes.1) unnamed_addr #1 !dbg !2200 {
start:
  %bytes.dbg.spill = alloca [16 x i8], align 8
  store ptr %bytes.0, ptr %bytes.dbg.spill, align 8
  %0 = getelementptr inbounds i8, ptr %bytes.dbg.spill, i64 8
  store i64 %bytes.1, ptr %0, align 8
    #dbg_declare(ptr %bytes.dbg.spill, !2205, !DIExpression(), !2206)
; call core::ffi::c_str::CStr::from_bytes_with_nul_unchecked::runtime
  %1 = call { ptr, i64 } @_ZN4core3ffi5c_str4CStr29from_bytes_with_nul_unchecked7runtime17hf4ecf365b496096eE(ptr align 1 %bytes.0, i64 %bytes.1) #19, !dbg !2207
  %_0.0 = extractvalue { ptr, i64 } %1, 0, !dbg !2207
  %_0.1 = extractvalue { ptr, i64 } %1, 1, !dbg !2207
  %2 = insertvalue { ptr, i64 } poison, ptr %_0.0, 0, !dbg !2209
  %3 = insertvalue { ptr, i64 } %2, i64 %_0.1, 1, !dbg !2209
  ret { ptr, i64 } %3, !dbg !2209
}

; core::ffi::c_str::CStr::from_bytes_with_nul_unchecked::runtime
; Function Attrs: inlinehint noredzone nounwind
define internal { ptr, i64 } @_ZN4core3ffi5c_str4CStr29from_bytes_with_nul_unchecked7runtime17hf4ecf365b496096eE(ptr align 1 %bytes.0, i64 %bytes.1) unnamed_addr #1 !dbg !2210 {
start:
  %bytes.dbg.spill = alloca [16 x i8], align 8
  store ptr %bytes.0, ptr %bytes.dbg.spill, align 8
  %0 = getelementptr inbounds i8, ptr %bytes.dbg.spill, i64 8
  store i64 %bytes.1, ptr %0, align 8
    #dbg_declare(ptr %bytes.dbg.spill, !2214, !DIExpression(), !2215)
; call core::slice::<impl [T]>::is_empty
  %_2 = call zeroext i1 @"_ZN4core5slice29_$LT$impl$u20$$u5b$T$u5d$$GT$8is_empty17h2172446e24132f7bE"(ptr align 1 %bytes.0, i64 %bytes.1) #19, !dbg !2216
  br i1 %_2, label %bb5, label %bb2, !dbg !2216

bb2:                                              ; preds = %start
  %_6.0 = sub i64 %bytes.1, 1, !dbg !2218
  %_6.1 = icmp ult i64 %bytes.1, 1, !dbg !2218
  br i1 %_6.1, label %panic, label %bb3, !dbg !2218

bb5:                                              ; preds = %bb4, %start
; call core::panicking::panic
  call void @_ZN4core9panicking5panic17h7fc528264ed09151E(ptr align 1 @alloc_8d17c0d7765c1f1b0dc7acf59030ea5a, i64 66, ptr align 8 @alloc_7e539950dfc031d8f4e8dcd31988878b) #20, !dbg !2219
  unreachable, !dbg !2219

bb3:                                              ; preds = %bb2
  %_8 = icmp ult i64 %_6.0, %bytes.1, !dbg !2222
  br i1 %_8, label %bb4, label %panic1, !dbg !2222

panic:                                            ; preds = %bb2
; call core::panicking::panic_const::panic_const_sub_overflow
  call void @_ZN4core9panicking11panic_const24panic_const_sub_overflow17h53fb6c3dd8613dddE(ptr align 8 @alloc_9f0d15b92aba5db727d77e6b46e60a6d) #20, !dbg !2218
  unreachable, !dbg !2218

bb4:                                              ; preds = %bb3
  %1 = getelementptr inbounds i8, ptr %bytes.0, i64 %_6.0, !dbg !2222
  %_3 = load i8, ptr %1, align 1, !dbg !2222
  %2 = icmp eq i8 %_3, 0, !dbg !2222
  br i1 %2, label %bb6, label %bb5, !dbg !2222

panic1:                                           ; preds = %bb3
; call core::panicking::panic_bounds_check
  call void @_ZN4core9panicking18panic_bounds_check17h108cc659bbe8a41aE(i64 %_6.0, i64 %bytes.1, ptr align 8 @alloc_6458170d55f163cf8296d020f34783fa) #20, !dbg !2222
  unreachable, !dbg !2222

bb6:                                              ; preds = %bb4
  %3 = insertvalue { ptr, i64 } poison, ptr %bytes.0, 0, !dbg !2223
  %4 = insertvalue { ptr, i64 } %3, i64 %bytes.1, 1, !dbg !2223
  ret { ptr, i64 } %4, !dbg !2223
}

; core::ffi::c_str::CStr::from_ptr
; Function Attrs: inlinehint noredzone nounwind
define internal { ptr, i64 } @_ZN4core3ffi5c_str4CStr8from_ptr17heec05a6e074ea783E(ptr %ptr) unnamed_addr #1 !dbg !2224 {
start:
  %self.dbg.spill.i = alloca [8 x i8], align 8
  %len.dbg.spill = alloca [8 x i8], align 8
  %ptr.dbg.spill = alloca [8 x i8], align 8
  store ptr %ptr, ptr %ptr.dbg.spill, align 8
    #dbg_declare(ptr %ptr.dbg.spill, !2229, !DIExpression(), !2232)
; call core::ffi::c_str::strlen
  %len = call i64 @_ZN4core3ffi5c_str6strlen17hfb36e049099ff8d1E(ptr %ptr) #19, !dbg !2233
  store i64 %len, ptr %len.dbg.spill, align 8, !dbg !2233
    #dbg_declare(ptr %len.dbg.spill, !2230, !DIExpression(), !2234)
  store ptr %ptr, ptr %self.dbg.spill.i, align 8
    #dbg_declare(ptr %self.dbg.spill.i, !2235, !DIExpression(), !2245)
  %0 = call { i64, i1 } @llvm.uadd.with.overflow.i64(i64 %len, i64 1), !dbg !2247
  %_6.0 = extractvalue { i64, i1 } %0, 0, !dbg !2247
  %_6.1 = extractvalue { i64, i1 } %0, 1, !dbg !2247
  br i1 %_6.1, label %panic, label %bb3, !dbg !2247

bb3:                                              ; preds = %start
; call core::slice::raw::from_raw_parts
  %1 = call { ptr, i64 } @_ZN4core5slice3raw14from_raw_parts17h42c262a59a518897E(ptr %ptr, i64 %_6.0) #19, !dbg !2248
  %_3.0 = extractvalue { ptr, i64 } %1, 0, !dbg !2248
  %_3.1 = extractvalue { ptr, i64 } %1, 1, !dbg !2248
; call core::ffi::c_str::CStr::from_bytes_with_nul_unchecked
  %2 = call { ptr, i64 } @_ZN4core3ffi5c_str4CStr29from_bytes_with_nul_unchecked17ha6543f6aaea04575E(ptr align 1 %_3.0, i64 %_3.1) #19, !dbg !2249
  %_0.0 = extractvalue { ptr, i64 } %2, 0, !dbg !2249
  %_0.1 = extractvalue { ptr, i64 } %2, 1, !dbg !2249
  %3 = insertvalue { ptr, i64 } poison, ptr %_0.0, 0, !dbg !2250
  %4 = insertvalue { ptr, i64 } %3, i64 %_0.1, 1, !dbg !2250
  ret { ptr, i64 } %4, !dbg !2250

panic:                                            ; preds = %start
; call core::panicking::panic_const::panic_const_add_overflow
  call void @_ZN4core9panicking11panic_const24panic_const_add_overflow17h4c6b9706f31e349eE(ptr align 8 @alloc_96dbbd18d2586395505ff540e7734837) #20, !dbg !2247
  unreachable, !dbg !2247
}

; core::ffi::c_str::CStr::to_bytes
; Function Attrs: inlinehint noredzone nounwind
define internal { ptr, i64 } @_ZN4core3ffi5c_str4CStr8to_bytes17h40a5d5761cbaddacE(ptr align 1 %self.0, i64 %self.1) unnamed_addr #1 !dbg !2251 {
start:
  %self.dbg.spill.i = alloca [16 x i8], align 8
  %bytes.dbg.spill = alloca [16 x i8], align 8
  %self.dbg.spill = alloca [16 x i8], align 8
  store ptr %self.0, ptr %self.dbg.spill, align 8
  %0 = getelementptr inbounds i8, ptr %self.dbg.spill, i64 8
  store i64 %self.1, ptr %0, align 8
    #dbg_declare(ptr %self.dbg.spill, !2254, !DIExpression(), !2257)
; call core::ffi::c_str::CStr::to_bytes_with_nul
  %1 = call { ptr, i64 } @_ZN4core3ffi5c_str4CStr17to_bytes_with_nul17haf7b1cd4724fd351E(ptr align 1 %self.0, i64 %self.1) #19, !dbg !2258
  %bytes.0 = extractvalue { ptr, i64 } %1, 0, !dbg !2258
  %bytes.1 = extractvalue { ptr, i64 } %1, 1, !dbg !2258
  store ptr %bytes.0, ptr %bytes.dbg.spill, align 8, !dbg !2258
  %2 = getelementptr inbounds i8, ptr %bytes.dbg.spill, i64 8, !dbg !2258
  store i64 %bytes.1, ptr %2, align 8, !dbg !2258
    #dbg_declare(ptr %bytes.dbg.spill, !2255, !DIExpression(), !2259)
  store ptr %bytes.0, ptr %self.dbg.spill.i, align 8
  %3 = getelementptr inbounds i8, ptr %self.dbg.spill.i, i64 8
  store i64 %bytes.1, ptr %3, align 8
    #dbg_declare(ptr %self.dbg.spill.i, !2260, !DIExpression(), !2267)
  %_6.0 = sub i64 %bytes.1, 1, !dbg !2269
  %_6.1 = icmp ult i64 %bytes.1, 1, !dbg !2269
  br i1 %_6.1, label %panic, label %bb3, !dbg !2269

bb3:                                              ; preds = %start
; call core::slice::raw::from_raw_parts
  %4 = call { ptr, i64 } @_ZN4core5slice3raw14from_raw_parts17h42c262a59a518897E(ptr %bytes.0, i64 %_6.0) #19, !dbg !2270
  %_0.0 = extractvalue { ptr, i64 } %4, 0, !dbg !2270
  %_0.1 = extractvalue { ptr, i64 } %4, 1, !dbg !2270
  %5 = insertvalue { ptr, i64 } poison, ptr %_0.0, 0, !dbg !2271
  %6 = insertvalue { ptr, i64 } %5, i64 %_0.1, 1, !dbg !2271
  ret { ptr, i64 } %6, !dbg !2271

panic:                                            ; preds = %start
; call core::panicking::panic_const::panic_const_sub_overflow
  call void @_ZN4core9panicking11panic_const24panic_const_sub_overflow17h53fb6c3dd8613dddE(ptr align 8 @alloc_fda627a204408664747b80345fea4cda) #20, !dbg !2269
  unreachable, !dbg !2269
}

; core::ffi::c_str::strlen
; Function Attrs: inlinehint noredzone nounwind
define internal i64 @_ZN4core3ffi5c_str6strlen17hfb36e049099ff8d1E(ptr %ptr) unnamed_addr #1 !dbg !2272 {
start:
  %ptr.dbg.spill = alloca [8 x i8], align 8
  store ptr %ptr, ptr %ptr.dbg.spill, align 8
    #dbg_declare(ptr %ptr.dbg.spill, !2276, !DIExpression(), !2277)
; call core::ffi::c_str::strlen::runtime
  %_0 = call i64 @_ZN4core3ffi5c_str6strlen7runtime17h429f74902c896c11E(ptr %ptr) #19, !dbg !2278
  ret i64 %_0, !dbg !2280
}

; core::ffi::c_str::strlen::runtime
; Function Attrs: inlinehint noredzone nounwind
define internal i64 @_ZN4core3ffi5c_str6strlen7runtime17h429f74902c896c11E(ptr %s) unnamed_addr #1 !dbg !2281 {
start:
  %s.dbg.spill = alloca [8 x i8], align 8
  store ptr %s, ptr %s.dbg.spill, align 8
    #dbg_declare(ptr %s.dbg.spill, !2284, !DIExpression(), !2285)
  %_0 = call i64 @strlen(ptr %s) #19, !dbg !2286
  ret i64 %_0, !dbg !2288
}

; core::fmt::num::<impl core::fmt::Debug for u8>::fmt
; Function Attrs: inlinehint noredzone nounwind
define internal zeroext i1 @"_ZN4core3fmt3num49_$LT$impl$u20$core..fmt..Debug$u20$for$u20$u8$GT$3fmt17h9607ef3dfbebba9bE"(ptr align 1 %self, ptr align 8 %f) unnamed_addr #1 !dbg !2289 {
start:
  %f.dbg.spill = alloca [8 x i8], align 8
  %self.dbg.spill = alloca [8 x i8], align 8
  %_0 = alloca [1 x i8], align 1
  store ptr %self, ptr %self.dbg.spill, align 8
    #dbg_declare(ptr %self.dbg.spill, !2296, !DIExpression(), !2298)
  store ptr %f, ptr %f.dbg.spill, align 8
    #dbg_declare(ptr %f.dbg.spill, !2297, !DIExpression(), !2299)
; call core::fmt::Formatter::debug_lower_hex
  %_3 = call zeroext i1 @_ZN4core3fmt9Formatter15debug_lower_hex17h8a931bc535da4445E(ptr align 8 %f) #19, !dbg !2300
  br i1 %_3, label %bb2, label %bb3, !dbg !2300

bb3:                                              ; preds = %start
; call core::fmt::Formatter::debug_upper_hex
  %_5 = call zeroext i1 @_ZN4core3fmt9Formatter15debug_upper_hex17h3620bb11f995d411E(ptr align 8 %f) #19, !dbg !2301
  br i1 %_5, label %bb5, label %bb6, !dbg !2301

bb2:                                              ; preds = %start
; call core::fmt::num::<impl core::fmt::LowerHex for u8>::fmt
  %0 = call zeroext i1 @"_ZN4core3fmt3num52_$LT$impl$u20$core..fmt..LowerHex$u20$for$u20$u8$GT$3fmt17h82f9f3e4c5ec98ecE"(ptr align 1 %self, ptr align 8 %f) #19, !dbg !2302
  %1 = zext i1 %0 to i8, !dbg !2302
  store i8 %1, ptr %_0, align 1, !dbg !2302
  br label %bb7, !dbg !2302

bb6:                                              ; preds = %bb3
; call core::fmt::num::imp::<impl core::fmt::Display for u8>::fmt
  %2 = call zeroext i1 @"_ZN4core3fmt3num3imp51_$LT$impl$u20$core..fmt..Display$u20$for$u20$u8$GT$3fmt17h447db19b7d01ee58E"(ptr align 1 %self, ptr align 8 %f) #19, !dbg !2303
  %3 = zext i1 %2 to i8, !dbg !2303
  store i8 %3, ptr %_0, align 1, !dbg !2303
  br label %bb7, !dbg !2303

bb5:                                              ; preds = %bb3
; call core::fmt::num::<impl core::fmt::UpperHex for u8>::fmt
  %4 = call zeroext i1 @"_ZN4core3fmt3num52_$LT$impl$u20$core..fmt..UpperHex$u20$for$u20$u8$GT$3fmt17hfc47f814aa826677E"(ptr align 1 %self, ptr align 8 %f) #19, !dbg !2304
  %5 = zext i1 %4 to i8, !dbg !2304
  store i8 %5, ptr %_0, align 1, !dbg !2304
  br label %bb7, !dbg !2304

bb7:                                              ; preds = %bb2, %bb5, %bb6
  %6 = load i8, ptr %_0, align 1, !dbg !2305
  %7 = trunc i8 %6 to i1, !dbg !2305
  ret i1 %7, !dbg !2305
}

; core::fmt::num::<impl core::fmt::Debug for usize>::fmt
; Function Attrs: inlinehint noredzone nounwind
define internal zeroext i1 @"_ZN4core3fmt3num52_$LT$impl$u20$core..fmt..Debug$u20$for$u20$usize$GT$3fmt17h8901250f82f506b0E"(ptr align 8 %self, ptr align 8 %f) unnamed_addr #1 !dbg !2306 {
start:
  %f.dbg.spill = alloca [8 x i8], align 8
  %self.dbg.spill = alloca [8 x i8], align 8
  %_0 = alloca [1 x i8], align 1
  store ptr %self, ptr %self.dbg.spill, align 8
    #dbg_declare(ptr %self.dbg.spill, !2311, !DIExpression(), !2313)
  store ptr %f, ptr %f.dbg.spill, align 8
    #dbg_declare(ptr %f.dbg.spill, !2312, !DIExpression(), !2314)
; call core::fmt::Formatter::debug_lower_hex
  %_3 = call zeroext i1 @_ZN4core3fmt9Formatter15debug_lower_hex17h8a931bc535da4445E(ptr align 8 %f) #19, !dbg !2315
  br i1 %_3, label %bb2, label %bb3, !dbg !2315

bb3:                                              ; preds = %start
; call core::fmt::Formatter::debug_upper_hex
  %_5 = call zeroext i1 @_ZN4core3fmt9Formatter15debug_upper_hex17h3620bb11f995d411E(ptr align 8 %f) #19, !dbg !2316
  br i1 %_5, label %bb5, label %bb6, !dbg !2316

bb2:                                              ; preds = %start
; call core::fmt::num::<impl core::fmt::LowerHex for usize>::fmt
  %0 = call zeroext i1 @"_ZN4core3fmt3num55_$LT$impl$u20$core..fmt..LowerHex$u20$for$u20$usize$GT$3fmt17ha08e884baf93fe5eE"(ptr align 8 %self, ptr align 8 %f) #19, !dbg !2317
  %1 = zext i1 %0 to i8, !dbg !2317
  store i8 %1, ptr %_0, align 1, !dbg !2317
  br label %bb7, !dbg !2317

bb6:                                              ; preds = %bb3
; call core::fmt::num::imp::<impl core::fmt::Display for usize>::fmt
  %2 = call zeroext i1 @"_ZN4core3fmt3num3imp54_$LT$impl$u20$core..fmt..Display$u20$for$u20$usize$GT$3fmt17h3dd1a47b22e61be3E"(ptr align 8 %self, ptr align 8 %f) #19, !dbg !2318
  %3 = zext i1 %2 to i8, !dbg !2318
  store i8 %3, ptr %_0, align 1, !dbg !2318
  br label %bb7, !dbg !2318

bb5:                                              ; preds = %bb3
; call core::fmt::num::<impl core::fmt::UpperHex for usize>::fmt
  %4 = call zeroext i1 @"_ZN4core3fmt3num55_$LT$impl$u20$core..fmt..UpperHex$u20$for$u20$usize$GT$3fmt17hd4e86af42a28a756E"(ptr align 8 %self, ptr align 8 %f) #19, !dbg !2319
  %5 = zext i1 %4 to i8, !dbg !2319
  store i8 %5, ptr %_0, align 1, !dbg !2319
  br label %bb7, !dbg !2319

bb7:                                              ; preds = %bb2, %bb5, %bb6
  %6 = load i8, ptr %_0, align 1, !dbg !2320
  %7 = trunc i8 %6 to i1, !dbg !2320
  ret i1 %7, !dbg !2320
}

; core::fmt::Write::write_fmt
; Function Attrs: noredzone nounwind
define dso_local zeroext i1 @_ZN4core3fmt5Write9write_fmt17h17a6868f9c748f56E(ptr align 8 %self, ptr align 8 %args) unnamed_addr #0 !dbg !2321 {
start:
  %0 = alloca [48 x i8], align 8
  %self.dbg.spill = alloca [8 x i8], align 8
  store ptr %self, ptr %self.dbg.spill, align 8
    #dbg_declare(ptr %self.dbg.spill, !2410, !DIExpression(), !2414)
    #dbg_declare(ptr %args, !2411, !DIExpression(), !2415)
  call void @llvm.memcpy.p0.p0.i64(ptr align 8 %0, ptr align 8 %args, i64 48, i1 false), !dbg !2416
; call <&mut W as core::fmt::Write::write_fmt::SpecWriteFmt>::spec_write_fmt
  %_0 = call zeroext i1 @"_ZN75_$LT$$RF$mut$u20$W$u20$as$u20$core..fmt..Write..write_fmt..SpecWriteFmt$GT$14spec_write_fmt17h339dd32b174ea071E"(ptr align 8 %self, ptr align 8 %0) #19, !dbg !2416
  ret i1 %_0, !dbg !2417
}

; core::fmt::Arguments::estimated_capacity
; Function Attrs: inlinehint noredzone nounwind
define internal i64 @_ZN4core3fmt9Arguments18estimated_capacity17h0aa853e31d84981cE(ptr align 8 %self) unnamed_addr #1 !dbg !2418 {
start:
  %pieces_length.dbg.spill = alloca [8 x i8], align 8
  %self.dbg.spill = alloca [8 x i8], align 8
  %_0 = alloca [8 x i8], align 8
  store ptr %self, ptr %self.dbg.spill, align 8
    #dbg_declare(ptr %self.dbg.spill, !2424, !DIExpression(), !2427)
  %_14.0 = load ptr, ptr %self, align 8, !dbg !2428
  %0 = getelementptr inbounds i8, ptr %self, i64 8, !dbg !2428
  %_14.1 = load i64, ptr %0, align 8, !dbg !2428
; call core::slice::<impl [T]>::iter
  %1 = call { ptr, ptr } @"_ZN4core5slice29_$LT$impl$u20$$u5b$T$u5d$$GT$4iter17hf6afd0e2edcd8e72E"(ptr align 8 %_14.0, i64 %_14.1) #19, !dbg !2428
  %_4.0 = extractvalue { ptr, ptr } %1, 0, !dbg !2428
  %_4.1 = extractvalue { ptr, ptr } %1, 1, !dbg !2428
; call core::iter::traits::iterator::Iterator::map
  %2 = call { ptr, ptr } @_ZN4core4iter6traits8iterator8Iterator3map17h4102d12a4a4a27b0E(ptr %_4.0, ptr %_4.1) #19, !dbg !2428
  %_3.0 = extractvalue { ptr, ptr } %2, 0, !dbg !2428
  %_3.1 = extractvalue { ptr, ptr } %2, 1, !dbg !2428
; call core::iter::traits::iterator::Iterator::sum
  %pieces_length = call i64 @_ZN4core4iter6traits8iterator8Iterator3sum17h162802470fc82891E(ptr %_3.0, ptr %_3.1) #19, !dbg !2428
  store i64 %pieces_length, ptr %pieces_length.dbg.spill, align 8, !dbg !2428
    #dbg_declare(ptr %pieces_length.dbg.spill, !2425, !DIExpression(), !2429)
  %3 = getelementptr inbounds i8, ptr %self, i64 16, !dbg !2430
  %_15.0 = load ptr, ptr %3, align 8, !dbg !2430
  %4 = getelementptr inbounds i8, ptr %3, i64 8, !dbg !2430
  %_15.1 = load i64, ptr %4, align 8, !dbg !2430
; call core::slice::<impl [T]>::is_empty
  %_5 = call zeroext i1 @"_ZN4core5slice29_$LT$impl$u20$$u5b$T$u5d$$GT$8is_empty17hde578c486e02b392E"(ptr align 8 %_15.0, i64 %_15.1) #19, !dbg !2430
  br i1 %_5, label %bb5, label %bb6, !dbg !2430

bb6:                                              ; preds = %start
  %_16.0 = load ptr, ptr %self, align 8, !dbg !2431
  %5 = getelementptr inbounds i8, ptr %self, i64 8, !dbg !2431
  %_16.1 = load i64, ptr %5, align 8, !dbg !2431
; call core::slice::<impl [T]>::is_empty
  %_6 = call zeroext i1 @"_ZN4core5slice29_$LT$impl$u20$$u5b$T$u5d$$GT$8is_empty17hb4a3073d01c98febE"(ptr align 8 %_16.0, i64 %_16.1) #19, !dbg !2431
  br i1 %_6, label %bb13, label %bb8, !dbg !2431

bb5:                                              ; preds = %start
  store i64 %pieces_length, ptr %_0, align 8, !dbg !2432
  br label %bb15, !dbg !2433

bb8:                                              ; preds = %bb6
  %_17.0 = load ptr, ptr %self, align 8, !dbg !2434
  %6 = getelementptr inbounds i8, ptr %self, i64 8, !dbg !2434
  %_17.1 = load i64, ptr %6, align 8, !dbg !2434
  %_11 = icmp ult i64 0, %_17.1, !dbg !2434
  br i1 %_11, label %bb9, label %panic, !dbg !2434

bb13:                                             ; preds = %bb11, %bb9, %bb6
; call core::num::<impl usize>::checked_mul
  %7 = call { i64, i64 } @"_ZN4core3num23_$LT$impl$u20$usize$GT$11checked_mul17h1099cb059e25569fE"(i64 %pieces_length, i64 2) #19, !dbg !2435
  %_13.0 = extractvalue { i64, i64 } %7, 0, !dbg !2435
  %_13.1 = extractvalue { i64, i64 } %7, 1, !dbg !2435
; call core::option::Option<T>::unwrap_or
  %8 = call i64 @"_ZN4core6option15Option$LT$T$GT$9unwrap_or17h84d3606abc15c5b9E"(i64 %_13.0, i64 %_13.1, i64 0) #19, !dbg !2435
  store i64 %8, ptr %_0, align 8, !dbg !2435
  br label %bb15, !dbg !2435

bb9:                                              ; preds = %bb8
  %_18.0 = load ptr, ptr %self, align 8, !dbg !2434
  %9 = getelementptr inbounds i8, ptr %self, i64 8, !dbg !2434
  %_18.1 = load i64, ptr %9, align 8, !dbg !2434
  %10 = getelementptr inbounds { ptr, i64 }, ptr %_18.0, i64 0, !dbg !2434
  %_19.0 = load ptr, ptr %10, align 8, !dbg !2434
  %11 = getelementptr inbounds i8, ptr %10, i64 8, !dbg !2434
  %_19.1 = load i64, ptr %11, align 8, !dbg !2434
; call core::str::<impl str>::is_empty
  %_7 = call zeroext i1 @"_ZN4core3str21_$LT$impl$u20$str$GT$8is_empty17h9c00469c59768be4E"(ptr align 1 %_19.0, i64 %_19.1) #19, !dbg !2434
  br i1 %_7, label %bb11, label %bb13, !dbg !2434

panic:                                            ; preds = %bb8
; call core::panicking::panic_bounds_check
  call void @_ZN4core9panicking18panic_bounds_check17h108cc659bbe8a41aE(i64 0, i64 %_17.1, ptr align 8 @alloc_169f356811361b0ca861a16299c49ec7) #20, !dbg !2434
  unreachable, !dbg !2434

bb11:                                             ; preds = %bb9
  %_12 = icmp ult i64 %pieces_length, 16, !dbg !2436
  br i1 %_12, label %bb12, label %bb13, !dbg !2436

bb12:                                             ; preds = %bb11
  store i64 0, ptr %_0, align 8, !dbg !2437
  br label %bb15, !dbg !2438

bb15:                                             ; preds = %bb5, %bb13, %bb12
  %12 = load i64, ptr %_0, align 8, !dbg !2439
  ret i64 %12, !dbg !2439
}

; core::fmt::Arguments::estimated_capacity::{{closure}}
; Function Attrs: inlinehint noredzone nounwind
define dso_local i64 @"_ZN4core3fmt9Arguments18estimated_capacity28_$u7b$$u7b$closure$u7d$$u7d$17h84118b2ebfb16d0bE"(ptr align 1 %_1, ptr align 8 %x) unnamed_addr #1 !dbg !2440 {
start:
  %x.dbg.spill = alloca [8 x i8], align 8
  %_1.dbg.spill = alloca [8 x i8], align 8
  store ptr %_1, ptr %_1.dbg.spill, align 8
    #dbg_declare(ptr %_1.dbg.spill, !2446, !DIExpression(), !2447)
  store ptr %x, ptr %x.dbg.spill, align 8
    #dbg_declare(ptr %x.dbg.spill, !2445, !DIExpression(), !2448)
  %_3.0 = load ptr, ptr %x, align 8, !dbg !2449
  %0 = getelementptr inbounds i8, ptr %x, i64 8, !dbg !2449
  %_3.1 = load i64, ptr %0, align 8, !dbg !2449
; call core::str::<impl str>::len
  %_0 = call i64 @"_ZN4core3str21_$LT$impl$u20$str$GT$3len17hea9710fd3f44ef8fE"(ptr align 1 %_3.0, i64 %_3.1) #19, !dbg !2449
  ret i64 %_0, !dbg !2450
}

; core::fmt::Arguments::as_statically_known_str
; Function Attrs: inlinehint noredzone nounwind
define internal { ptr, i64 } @_ZN4core3fmt9Arguments23as_statically_known_str17h798a4b7fe9c92c9eE(ptr align 8 %self) unnamed_addr #1 !dbg !2451 {
start:
  %0 = alloca [1 x i8], align 1
  %self.dbg.spill = alloca [8 x i8], align 8
  %s = alloca [16 x i8], align 8
  %_0 = alloca [16 x i8], align 8
  store ptr %self, ptr %self.dbg.spill, align 8
    #dbg_declare(ptr %self.dbg.spill, !2467, !DIExpression(), !2470)
    #dbg_declare(ptr %s, !2468, !DIExpression(), !2471)
; call core::fmt::Arguments::as_str
  %1 = call { ptr, i64 } @_ZN4core3fmt9Arguments6as_str17h07f759ec19814b9cE(ptr align 8 %self) #19, !dbg !2472
  %2 = extractvalue { ptr, i64 } %1, 0, !dbg !2472
  %3 = extractvalue { ptr, i64 } %1, 1, !dbg !2472
  store ptr %2, ptr %s, align 8, !dbg !2472
  %4 = getelementptr inbounds i8, ptr %s, i64 8, !dbg !2472
  store i64 %3, ptr %4, align 8, !dbg !2472
; call core::option::Option<T>::is_some
  %_4 = call zeroext i1 @"_ZN4core6option15Option$LT$T$GT$7is_some17h7f617821f9074f55E"(ptr align 8 %s) #19, !dbg !2473
  %5 = call i1 @llvm.is.constant.i1(i1 %_4), !dbg !2474
  %6 = zext i1 %5 to i8, !dbg !2474
  store i8 %6, ptr %0, align 1, !dbg !2474
  %7 = load i8, ptr %0, align 1, !dbg !2474
  %_3 = trunc i8 %7 to i1, !dbg !2474
  br i1 %_3, label %bb4, label %bb5, !dbg !2474

bb5:                                              ; preds = %start
  store ptr null, ptr %_0, align 8, !dbg !2475
  br label %bb6, !dbg !2476

bb4:                                              ; preds = %start
  %8 = load ptr, ptr %s, align 8, !dbg !2477
  %9 = getelementptr inbounds i8, ptr %s, i64 8, !dbg !2477
  %10 = load i64, ptr %9, align 8, !dbg !2477
  store ptr %8, ptr %_0, align 8, !dbg !2477
  %11 = getelementptr inbounds i8, ptr %_0, i64 8, !dbg !2477
  store i64 %10, ptr %11, align 8, !dbg !2477
  br label %bb6, !dbg !2476

bb6:                                              ; preds = %bb4, %bb5
  %12 = load ptr, ptr %_0, align 8, !dbg !2478
  %13 = getelementptr inbounds i8, ptr %_0, i64 8, !dbg !2478
  %14 = load i64, ptr %13, align 8, !dbg !2478
  %15 = insertvalue { ptr, i64 } poison, ptr %12, 0, !dbg !2478
  %16 = insertvalue { ptr, i64 } %15, i64 %14, 1, !dbg !2478
  ret { ptr, i64 } %16, !dbg !2478
}

; core::fmt::Arguments::as_str
; Function Attrs: inlinehint noredzone nounwind
define internal { ptr, i64 } @_ZN4core3fmt9Arguments6as_str17h07f759ec19814b9cE(ptr align 8 %self) unnamed_addr #1 !dbg !2479 {
start:
  %s.dbg.spill = alloca [8 x i8], align 8
  %self.dbg.spill = alloca [8 x i8], align 8
  %_2 = alloca [32 x i8], align 8
  %_0 = alloca [16 x i8], align 8
  store ptr %self, ptr %self.dbg.spill, align 8
    #dbg_declare(ptr %self.dbg.spill, !2482, !DIExpression(), !2485)
  %_3.0 = load ptr, ptr %self, align 8, !dbg !2486
  %0 = getelementptr inbounds i8, ptr %self, i64 8, !dbg !2486
  %_3.1 = load i64, ptr %0, align 8, !dbg !2486
  %1 = getelementptr inbounds i8, ptr %self, i64 16, !dbg !2487
  %_4.0 = load ptr, ptr %1, align 8, !dbg !2487
  %2 = getelementptr inbounds i8, ptr %1, i64 8, !dbg !2487
  %_4.1 = load i64, ptr %2, align 8, !dbg !2487
  store ptr %_3.0, ptr %_2, align 8, !dbg !2488
  %3 = getelementptr inbounds i8, ptr %_2, i64 8, !dbg !2488
  store i64 %_3.1, ptr %3, align 8, !dbg !2488
  %4 = getelementptr inbounds i8, ptr %_2, i64 16, !dbg !2488
  store ptr %_4.0, ptr %4, align 8, !dbg !2488
  %5 = getelementptr inbounds i8, ptr %4, i64 8, !dbg !2488
  store i64 %_4.1, ptr %5, align 8, !dbg !2488
  %_11.0 = load ptr, ptr %_2, align 8, !dbg !2489
  %6 = getelementptr inbounds i8, ptr %_2, i64 8, !dbg !2489
  %_11.1 = load i64, ptr %6, align 8, !dbg !2489
  %7 = icmp eq i64 %_11.1, 0, !dbg !2489
  br i1 %7, label %bb2, label %bb3, !dbg !2489

bb2:                                              ; preds = %start
  %8 = getelementptr inbounds i8, ptr %_2, i64 16, !dbg !2490
  %_12.0 = load ptr, ptr %8, align 8, !dbg !2490
  %9 = getelementptr inbounds i8, ptr %8, i64 8, !dbg !2490
  %_12.1 = load i64, ptr %9, align 8, !dbg !2490
  %10 = icmp eq i64 %_12.1, 0, !dbg !2490
  br i1 %10, label %bb6, label %bb1, !dbg !2490

bb3:                                              ; preds = %start
  %_13.0 = load ptr, ptr %_2, align 8, !dbg !2491
  %11 = getelementptr inbounds i8, ptr %_2, i64 8, !dbg !2491
  %_13.1 = load i64, ptr %11, align 8, !dbg !2491
  %12 = icmp eq i64 %_13.1, 1, !dbg !2491
  br i1 %12, label %bb4, label %bb1, !dbg !2491

bb6:                                              ; preds = %bb2
  store ptr inttoptr (i64 1 to ptr), ptr %_0, align 8, !dbg !2492
  %13 = getelementptr inbounds i8, ptr %_0, i64 8, !dbg !2492
  store i64 0, ptr %13, align 8, !dbg !2492
  br label %bb7, !dbg !2493

bb1:                                              ; preds = %bb4, %bb3, %bb2
  store ptr null, ptr %_0, align 8, !dbg !2494
  br label %bb7, !dbg !2494

bb7:                                              ; preds = %bb1, %bb5, %bb6
  %14 = load ptr, ptr %_0, align 8, !dbg !2495
  %15 = getelementptr inbounds i8, ptr %_0, i64 8, !dbg !2495
  %16 = load i64, ptr %15, align 8, !dbg !2495
  %17 = insertvalue { ptr, i64 } poison, ptr %14, 0, !dbg !2495
  %18 = insertvalue { ptr, i64 } %17, i64 %16, 1, !dbg !2495
  ret { ptr, i64 } %18, !dbg !2495

bb4:                                              ; preds = %bb3
  %19 = getelementptr inbounds i8, ptr %_2, i64 16, !dbg !2496
  %_14.0 = load ptr, ptr %19, align 8, !dbg !2496
  %20 = getelementptr inbounds i8, ptr %19, i64 8, !dbg !2496
  %_14.1 = load i64, ptr %20, align 8, !dbg !2496
  %21 = icmp eq i64 %_14.1, 0, !dbg !2496
  br i1 %21, label %bb5, label %bb1, !dbg !2496

bb5:                                              ; preds = %bb4
  %_15.0 = load ptr, ptr %_2, align 8, !dbg !2497
  %22 = getelementptr inbounds i8, ptr %_2, i64 8, !dbg !2497
  %_15.1 = load i64, ptr %22, align 8, !dbg !2497
  %s = getelementptr inbounds { ptr, i64 }, ptr %_15.0, i64 0, !dbg !2497
  store ptr %s, ptr %s.dbg.spill, align 8, !dbg !2497
    #dbg_declare(ptr %s.dbg.spill, !2483, !DIExpression(), !2498)
  %_16.0 = load ptr, ptr %s, align 8, !dbg !2499
  %23 = getelementptr inbounds i8, ptr %s, i64 8, !dbg !2499
  %_16.1 = load i64, ptr %23, align 8, !dbg !2499
  store ptr %_16.0, ptr %_0, align 8, !dbg !2500
  %24 = getelementptr inbounds i8, ptr %_0, i64 8, !dbg !2500
  store i64 %_16.1, ptr %24, align 8, !dbg !2500
  br label %bb7, !dbg !2501
}

; core::fmt::Formatter::write_fmt
; Function Attrs: inlinehint noredzone nounwind
define internal zeroext i1 @_ZN4core3fmt9Formatter9write_fmt17h2ed4d43cb43cb8e6E(ptr align 8 %self, ptr align 8 %fmt) unnamed_addr #1 !dbg !2502 {
start:
  %0 = alloca [48 x i8], align 8
  %s.dbg.spill = alloca [16 x i8], align 8
  %self.dbg.spill = alloca [8 x i8], align 8
  %_3 = alloca [16 x i8], align 8
  %_0 = alloca [1 x i8], align 1
  store ptr %self, ptr %self.dbg.spill, align 8
    #dbg_declare(ptr %self.dbg.spill, !2507, !DIExpression(), !2511)
    #dbg_declare(ptr %fmt, !2508, !DIExpression(), !2512)
; call core::fmt::Arguments::as_statically_known_str
  %1 = call { ptr, i64 } @_ZN4core3fmt9Arguments23as_statically_known_str17h798a4b7fe9c92c9eE(ptr align 8 %fmt) #19, !dbg !2513
  %2 = extractvalue { ptr, i64 } %1, 0, !dbg !2513
  %3 = extractvalue { ptr, i64 } %1, 1, !dbg !2513
  store ptr %2, ptr %_3, align 8, !dbg !2513
  %4 = getelementptr inbounds i8, ptr %_3, i64 8, !dbg !2513
  store i64 %3, ptr %4, align 8, !dbg !2513
  %5 = load ptr, ptr %_3, align 8, !dbg !2513
  %6 = ptrtoint ptr %5 to i64, !dbg !2513
  %7 = icmp eq i64 %6, 0, !dbg !2513
  %_5 = select i1 %7, i64 0, i64 1, !dbg !2513
  %8 = icmp eq i64 %_5, 1, !dbg !2514
  br i1 %8, label %bb2, label %bb3, !dbg !2514

bb2:                                              ; preds = %start
  %s.0 = load ptr, ptr %_3, align 8, !dbg !2515
  %9 = getelementptr inbounds i8, ptr %_3, i64 8, !dbg !2515
  %s.1 = load i64, ptr %9, align 8, !dbg !2515
  store ptr %s.0, ptr %s.dbg.spill, align 8, !dbg !2515
  %10 = getelementptr inbounds i8, ptr %s.dbg.spill, i64 8, !dbg !2515
  store i64 %s.1, ptr %10, align 8, !dbg !2515
    #dbg_declare(ptr %s.dbg.spill, !2509, !DIExpression(), !2515)
  %11 = getelementptr inbounds i8, ptr %self, i64 48, !dbg !2516
  %_7.0 = load ptr, ptr %11, align 8, !dbg !2516
  %12 = getelementptr inbounds i8, ptr %11, i64 8, !dbg !2516
  %_7.1 = load ptr, ptr %12, align 8, !dbg !2516
  %13 = getelementptr inbounds i8, ptr %_7.1, i64 24, !dbg !2516
  %14 = load ptr, ptr %13, align 8, !dbg !2516, !invariant.load !15, !nonnull !15
  %15 = call zeroext i1 %14(ptr align 1 %_7.0, ptr align 1 %s.0, i64 %s.1) #19, !dbg !2516
  %16 = zext i1 %15 to i8, !dbg !2516
  store i8 %16, ptr %_0, align 1, !dbg !2516
  br label %bb4, !dbg !2516

bb3:                                              ; preds = %start
  %17 = getelementptr inbounds i8, ptr %self, i64 48, !dbg !2517
  %_8.0 = load ptr, ptr %17, align 8, !dbg !2517
  %18 = getelementptr inbounds i8, ptr %17, i64 8, !dbg !2517
  %_8.1 = load ptr, ptr %18, align 8, !dbg !2517
  call void @llvm.memcpy.p0.p0.i64(ptr align 8 %0, ptr align 8 %fmt, i64 48, i1 false), !dbg !2518
; call core::fmt::write
  %19 = call zeroext i1 @_ZN4core3fmt5write17h09f3fe8c6b03e28fE(ptr align 1 %_8.0, ptr align 8 %_8.1, ptr align 8 %0) #19, !dbg !2518
  %20 = zext i1 %19 to i8, !dbg !2518
  store i8 %20, ptr %_0, align 1, !dbg !2518
  br label %bb4, !dbg !2518

bb4:                                              ; preds = %bb3, %bb2
  %21 = load i8, ptr %_0, align 1, !dbg !2519
  %22 = trunc i8 %21 to i1, !dbg !2519
  ret i1 %22, !dbg !2519

bb5:                                              ; No predecessors!
  unreachable, !dbg !2520
}

; core::mem::size_of_val_raw
; Function Attrs: inlinehint noredzone nounwind
define dso_local i64 @_ZN4core3mem15size_of_val_raw17hfc037130fcee5e8fE(ptr %val.0, i64 %val.1) unnamed_addr #1 !dbg !2521 {
start:
  %0 = alloca [8 x i8], align 8
  %val.dbg.spill = alloca [16 x i8], align 8
  store ptr %val.0, ptr %val.dbg.spill, align 8
  %1 = getelementptr inbounds i8, ptr %val.dbg.spill, i64 8
  store i64 %val.1, ptr %1, align 8
    #dbg_declare(ptr %val.dbg.spill, !2526, !DIExpression(), !2527)
  %2 = mul nsw i64 %val.1, 1, !dbg !2528
  store i64 %2, ptr %0, align 8, !dbg !2528
  %_0 = load i64, ptr %0, align 8, !dbg !2528
  ret i64 %_0, !dbg !2529
}

; core::mem::align_of_val_raw
; Function Attrs: inlinehint noredzone nounwind
define dso_local i64 @_ZN4core3mem16align_of_val_raw17he49e2e6348a68ebfE(ptr %val.0, i64 %val.1) unnamed_addr #1 !dbg !2530 {
start:
  %0 = alloca [8 x i8], align 8
  %val.dbg.spill = alloca [16 x i8], align 8
  store ptr %val.0, ptr %val.dbg.spill, align 8
  %1 = getelementptr inbounds i8, ptr %val.dbg.spill, i64 8
  store i64 %val.1, ptr %1, align 8
    #dbg_declare(ptr %val.dbg.spill, !2532, !DIExpression(), !2533)
  %2 = mul nsw i64 %val.1, 1, !dbg !2534
  store i64 1, ptr %0, align 8, !dbg !2534
  %_0 = load i64, ptr %0, align 8, !dbg !2534
  ret i64 %_0, !dbg !2535
}

; core::mem::take
; Function Attrs: inlinehint noredzone nounwind
define dso_local { ptr, i64 } @_ZN4core3mem4take17h8d397c24782aadc6E(ptr align 8 %dest) unnamed_addr #1 !dbg !2536 {
start:
  %dest.dbg.spill = alloca [8 x i8], align 8
  store ptr %dest, ptr %dest.dbg.spill, align 8
    #dbg_declare(ptr %dest.dbg.spill, !2545, !DIExpression(), !2548)
; call <alloc::boxed::Box<[T]> as core::default::Default>::default
  %0 = call { ptr, i64 } @"_ZN79_$LT$alloc..boxed..Box$LT$$u5b$T$u5d$$GT$$u20$as$u20$core..default..Default$GT$7default17h799a061006e6e183E"() #19, !dbg !2549
  %_2.0 = extractvalue { ptr, i64 } %0, 0, !dbg !2549
  %_2.1 = extractvalue { ptr, i64 } %0, 1, !dbg !2549
; call core::mem::replace
  %1 = call { ptr, i64 } @_ZN4core3mem7replace17h3e76aae5b8fff781E(ptr align 8 %dest, ptr align 1 %_2.0, i64 %_2.1) #19, !dbg !2550
  %_0.0 = extractvalue { ptr, i64 } %1, 0, !dbg !2550
  %_0.1 = extractvalue { ptr, i64 } %1, 1, !dbg !2550
  %2 = insertvalue { ptr, i64 } poison, ptr %_0.0, 0, !dbg !2551
  %3 = insertvalue { ptr, i64 } %2, i64 %_0.1, 1, !dbg !2551
  ret { ptr, i64 } %3, !dbg !2551
}

; core::mem::take
; Function Attrs: inlinehint noredzone nounwind
define dso_local { ptr, ptr } @_ZN4core3mem4take17hd620c28adb6a0c9eE(ptr align 8 %dest) unnamed_addr #1 !dbg !2552 {
start:
  %dest.dbg.spill = alloca [8 x i8], align 8
  store ptr %dest, ptr %dest.dbg.spill, align 8
    #dbg_declare(ptr %dest.dbg.spill, !2557, !DIExpression(), !2560)
; call <core::slice::iter::Iter<T> as core::default::Default>::default
  %0 = call { ptr, ptr } @"_ZN75_$LT$core..slice..iter..Iter$LT$T$GT$$u20$as$u20$core..default..Default$GT$7default17h6455e60f8a0ac6a0E"() #19, !dbg !2561
  %_2.0 = extractvalue { ptr, ptr } %0, 0, !dbg !2561
  %_2.1 = extractvalue { ptr, ptr } %0, 1, !dbg !2561
; call core::mem::replace
  %1 = call { ptr, ptr } @_ZN4core3mem7replace17hbf0915b005fb72f6E(ptr align 8 %dest, ptr %_2.0, ptr %_2.1) #19, !dbg !2562
  %_0.0 = extractvalue { ptr, ptr } %1, 0, !dbg !2562
  %_0.1 = extractvalue { ptr, ptr } %1, 1, !dbg !2562
  %2 = insertvalue { ptr, ptr } poison, ptr %_0.0, 0, !dbg !2563
  %3 = insertvalue { ptr, ptr } %2, ptr %_0.1, 1, !dbg !2563
  ret { ptr, ptr } %3, !dbg !2563
}

; core::mem::replace
; Function Attrs: inlinehint noredzone nounwind
define dso_local { ptr, i64 } @_ZN4core3mem7replace17h3e76aae5b8fff781E(ptr align 8 %dest, ptr align 1 %src.0, i64 %src.1) unnamed_addr #1 !dbg !2564 {
start:
  %result.dbg.spill = alloca [16 x i8], align 8
  %src.dbg.spill = alloca [16 x i8], align 8
  %dest.dbg.spill = alloca [8 x i8], align 8
  store ptr %dest, ptr %dest.dbg.spill, align 8
    #dbg_declare(ptr %dest.dbg.spill, !2568, !DIExpression(), !2572)
  store ptr %src.0, ptr %src.dbg.spill, align 8
  %0 = getelementptr inbounds i8, ptr %src.dbg.spill, i64 8
  store i64 %src.1, ptr %0, align 8
    #dbg_declare(ptr %src.dbg.spill, !2569, !DIExpression(), !2573)
; call core::ptr::read
  %1 = call { ptr, i64 } @_ZN4core3ptr4read17h2e437cd775b4c54bE(ptr %dest) #19, !dbg !2574
  %result.0 = extractvalue { ptr, i64 } %1, 0, !dbg !2574
  %result.1 = extractvalue { ptr, i64 } %1, 1, !dbg !2574
  store ptr %result.0, ptr %result.dbg.spill, align 8, !dbg !2574
  %2 = getelementptr inbounds i8, ptr %result.dbg.spill, i64 8, !dbg !2574
  store i64 %result.1, ptr %2, align 8, !dbg !2574
    #dbg_declare(ptr %result.dbg.spill, !2570, !DIExpression(), !2575)
; call core::ptr::write
  call void @_ZN4core3ptr5write17he9b8da1104db5e9fE(ptr %dest, ptr align 1 %src.0, i64 %src.1) #19, !dbg !2576
  %3 = insertvalue { ptr, i64 } poison, ptr %result.0, 0, !dbg !2577
  %4 = insertvalue { ptr, i64 } %3, i64 %result.1, 1, !dbg !2577
  ret { ptr, i64 } %4, !dbg !2577
}

; core::mem::replace
; Function Attrs: inlinehint noredzone nounwind
define dso_local { i16, i16 } @_ZN4core3mem7replace17h4ac15aa4e8b140cfE(ptr align 2 %dest, i16 %src.0, i16 %src.1) unnamed_addr #1 !dbg !2578 {
start:
  %result.dbg.spill = alloca [4 x i8], align 2
  %src.dbg.spill = alloca [4 x i8], align 2
  %dest.dbg.spill = alloca [8 x i8], align 8
  store ptr %dest, ptr %dest.dbg.spill, align 8
    #dbg_declare(ptr %dest.dbg.spill, !2583, !DIExpression(), !2589)
  store i16 %src.0, ptr %src.dbg.spill, align 2
  %0 = getelementptr inbounds i8, ptr %src.dbg.spill, i64 2
  store i16 %src.1, ptr %0, align 2
    #dbg_declare(ptr %src.dbg.spill, !2584, !DIExpression(), !2590)
; call core::ptr::read
  %1 = call { i16, i16 } @_ZN4core3ptr4read17h9d8e0c1e8c9002dbE(ptr %dest) #19, !dbg !2591
  %result.0 = extractvalue { i16, i16 } %1, 0, !dbg !2591
  %result.1 = extractvalue { i16, i16 } %1, 1, !dbg !2591
  store i16 %result.0, ptr %result.dbg.spill, align 2, !dbg !2591
  %2 = getelementptr inbounds i8, ptr %result.dbg.spill, i64 2, !dbg !2591
  store i16 %result.1, ptr %2, align 2, !dbg !2591
    #dbg_declare(ptr %result.dbg.spill, !2585, !DIExpression(), !2592)
; call core::ptr::write
  call void @_ZN4core3ptr5write17h3dda0bd55031b673E(ptr %dest, i16 %src.0, i16 %src.1) #19, !dbg !2593
  %3 = insertvalue { i16, i16 } poison, i16 %result.0, 0, !dbg !2594
  %4 = insertvalue { i16, i16 } %3, i16 %result.1, 1, !dbg !2594
  ret { i16, i16 } %4, !dbg !2594
}

; core::mem::replace
; Function Attrs: inlinehint noredzone nounwind
define dso_local { ptr, ptr } @_ZN4core3mem7replace17hbf0915b005fb72f6E(ptr align 8 %dest, ptr %src.0, ptr %src.1) unnamed_addr #1 !dbg !2595 {
start:
  %result.dbg.spill = alloca [16 x i8], align 8
  %src.dbg.spill = alloca [16 x i8], align 8
  %dest.dbg.spill = alloca [8 x i8], align 8
  store ptr %dest, ptr %dest.dbg.spill, align 8
    #dbg_declare(ptr %dest.dbg.spill, !2599, !DIExpression(), !2603)
  store ptr %src.0, ptr %src.dbg.spill, align 8
  %0 = getelementptr inbounds i8, ptr %src.dbg.spill, i64 8
  store ptr %src.1, ptr %0, align 8
    #dbg_declare(ptr %src.dbg.spill, !2600, !DIExpression(), !2604)
; call core::ptr::read
  %1 = call { ptr, ptr } @_ZN4core3ptr4read17he810e9133f8e596eE(ptr %dest) #19, !dbg !2605
  %result.0 = extractvalue { ptr, ptr } %1, 0, !dbg !2605
  %result.1 = extractvalue { ptr, ptr } %1, 1, !dbg !2605
  store ptr %result.0, ptr %result.dbg.spill, align 8, !dbg !2605
  %2 = getelementptr inbounds i8, ptr %result.dbg.spill, i64 8, !dbg !2605
  store ptr %result.1, ptr %2, align 8, !dbg !2605
    #dbg_declare(ptr %result.dbg.spill, !2601, !DIExpression(), !2606)
; call core::ptr::write
  call void @_ZN4core3ptr5write17hd2da871d5984becbE(ptr %dest, ptr %src.0, ptr %src.1) #19, !dbg !2607
  %3 = insertvalue { ptr, ptr } poison, ptr %result.0, 0, !dbg !2608
  %4 = insertvalue { ptr, ptr } %3, ptr %result.1, 1, !dbg !2608
  ret { ptr, ptr } %4, !dbg !2608
}

; core::num::<impl u8>::is_ascii_lowercase
; Function Attrs: inlinehint noredzone nounwind
define internal zeroext i1 @"_ZN4core3num20_$LT$impl$u20$u8$GT$18is_ascii_lowercase17hd7e0b550fd0e3e2eE"(ptr align 1 %self) unnamed_addr #1 !dbg !2609 {
start:
  %self.dbg.spill = alloca [8 x i8], align 8
  %_0 = alloca [1 x i8], align 1
  store ptr %self, ptr %self.dbg.spill, align 8
    #dbg_declare(ptr %self.dbg.spill, !2616, !DIExpression(), !2617)
  %0 = load i8, ptr %self, align 1, !dbg !2618
  %_2 = icmp ule i8 97, %0, !dbg !2618
  br i1 %_2, label %bb2, label %bb1, !dbg !2618

bb1:                                              ; preds = %start
  store i8 0, ptr %_0, align 1, !dbg !2619
  br label %bb3, !dbg !2619

bb2:                                              ; preds = %start
  %1 = load i8, ptr %self, align 1, !dbg !2618
  %_3 = icmp ule i8 %1, 122, !dbg !2618
  %2 = zext i1 %_3 to i8, !dbg !2618
  store i8 %2, ptr %_0, align 1, !dbg !2618
  br label %bb3, !dbg !2618

bb3:                                              ; preds = %bb2, %bb1
  %3 = load i8, ptr %_0, align 1, !dbg !2621
  %4 = trunc i8 %3 to i1, !dbg !2621
  ret i1 %4, !dbg !2621
}

; core::num::<impl u8>::is_ascii_uppercase
; Function Attrs: inlinehint noredzone nounwind
define internal zeroext i1 @"_ZN4core3num20_$LT$impl$u20$u8$GT$18is_ascii_uppercase17hcf2c6ea93f31546cE"(ptr align 1 %self) unnamed_addr #1 !dbg !2622 {
start:
  %self.dbg.spill = alloca [8 x i8], align 8
  %_0 = alloca [1 x i8], align 1
  store ptr %self, ptr %self.dbg.spill, align 8
    #dbg_declare(ptr %self.dbg.spill, !2624, !DIExpression(), !2625)
  %0 = load i8, ptr %self, align 1, !dbg !2626
  %_2 = icmp ule i8 65, %0, !dbg !2626
  br i1 %_2, label %bb2, label %bb1, !dbg !2626

bb1:                                              ; preds = %start
  store i8 0, ptr %_0, align 1, !dbg !2627
  br label %bb3, !dbg !2627

bb2:                                              ; preds = %start
  %1 = load i8, ptr %self, align 1, !dbg !2626
  %_3 = icmp ule i8 %1, 90, !dbg !2626
  %2 = zext i1 %_3 to i8, !dbg !2626
  store i8 %2, ptr %_0, align 1, !dbg !2626
  br label %bb3, !dbg !2626

bb3:                                              ; preds = %bb2, %bb1
  %3 = load i8, ptr %_0, align 1, !dbg !2629
  %4 = trunc i8 %3 to i1, !dbg !2629
  ret i1 %4, !dbg !2629
}

; core::num::<impl u8>::to_ascii_lowercase
; Function Attrs: inlinehint noredzone nounwind
define internal i8 @"_ZN4core3num20_$LT$impl$u20$u8$GT$18to_ascii_lowercase17h86adba17fc20bfc9E"(ptr align 1 %self) unnamed_addr #1 !dbg !2630 {
start:
  %self.dbg.spill = alloca [8 x i8], align 8
  store ptr %self, ptr %self.dbg.spill, align 8
    #dbg_declare(ptr %self.dbg.spill, !2634, !DIExpression(), !2635)
  %_2 = load i8, ptr %self, align 1, !dbg !2636
; call core::num::<impl u8>::is_ascii_uppercase
  %_5 = call zeroext i1 @"_ZN4core3num20_$LT$impl$u20$u8$GT$18is_ascii_uppercase17hcf2c6ea93f31546cE"(ptr align 1 %self) #19, !dbg !2637
  %_4 = zext i1 %_5 to i8, !dbg !2637
  %0 = call { i8, i1 } @llvm.umul.with.overflow.i8(i8 %_4, i8 32), !dbg !2638
  %_6.0 = extractvalue { i8, i1 } %0, 0, !dbg !2638
  %_6.1 = extractvalue { i8, i1 } %0, 1, !dbg !2638
  br i1 %_6.1, label %panic, label %bb2, !dbg !2638

bb2:                                              ; preds = %start
  %_0 = or i8 %_2, %_6.0, !dbg !2636
  ret i8 %_0, !dbg !2639

panic:                                            ; preds = %start
; call core::panicking::panic_const::panic_const_mul_overflow
  call void @_ZN4core9panicking11panic_const24panic_const_mul_overflow17hd8b965a20a5b4c6fE(ptr align 8 @alloc_94d53e123a230fae37821433f56279b5) #20, !dbg !2638
  unreachable, !dbg !2638
}

; core::num::<impl u8>::to_ascii_uppercase
; Function Attrs: inlinehint noredzone nounwind
define internal i8 @"_ZN4core3num20_$LT$impl$u20$u8$GT$18to_ascii_uppercase17h27d67ee103102a11E"(ptr align 1 %self) unnamed_addr #1 !dbg !2640 {
start:
  %self.dbg.spill = alloca [8 x i8], align 8
  store ptr %self, ptr %self.dbg.spill, align 8
    #dbg_declare(ptr %self.dbg.spill, !2642, !DIExpression(), !2643)
  %_2 = load i8, ptr %self, align 1, !dbg !2644
; call core::num::<impl u8>::is_ascii_lowercase
  %_5 = call zeroext i1 @"_ZN4core3num20_$LT$impl$u20$u8$GT$18is_ascii_lowercase17hd7e0b550fd0e3e2eE"(ptr align 1 %self) #19, !dbg !2645
  %_4 = zext i1 %_5 to i8, !dbg !2646
  %0 = call { i8, i1 } @llvm.umul.with.overflow.i8(i8 %_4, i8 32), !dbg !2647
  %_6.0 = extractvalue { i8, i1 } %0, 0, !dbg !2647
  %_6.1 = extractvalue { i8, i1 } %0, 1, !dbg !2647
  br i1 %_6.1, label %panic, label %bb2, !dbg !2647

bb2:                                              ; preds = %start
  %_0 = xor i8 %_2, %_6.0, !dbg !2644
  ret i8 %_0, !dbg !2648

panic:                                            ; preds = %start
; call core::panicking::panic_const::panic_const_mul_overflow
  call void @_ZN4core9panicking11panic_const24panic_const_mul_overflow17hd8b965a20a5b4c6fE(ptr align 8 @alloc_503d6b1c88920234878649959379ae93) #20, !dbg !2647
  unreachable, !dbg !2647
}

; core::num::<impl i32>::abs
; Function Attrs: inlinehint noredzone nounwind
define internal i32 @"_ZN4core3num21_$LT$impl$u20$i32$GT$3abs17h5b6bed69db1a7108E"(i32 signext %self) unnamed_addr #1 !dbg !2649 {
start:
  %self.dbg.spill.i = alloca [4 x i8], align 4
  %self.dbg.spill = alloca [4 x i8], align 4
  %_0 = alloca [4 x i8], align 4
  store i32 %self, ptr %self.dbg.spill, align 4
    #dbg_declare(ptr %self.dbg.spill, !2656, !DIExpression(), !2657)
  store i32 %self, ptr %self.dbg.spill.i, align 4
    #dbg_declare(ptr %self.dbg.spill.i, !2658, !DIExpression(), !2663)
  %_0.i = icmp slt i32 %self, 0, !dbg !2665
  br i1 %_0.i, label %bb2, label %bb4, !dbg !2666

bb4:                                              ; preds = %start
  store i32 %self, ptr %_0, align 4, !dbg !2667
  br label %bb5, !dbg !2668

bb2:                                              ; preds = %start
  %_3 = icmp eq i32 %self, -2147483648, !dbg !2669
  br i1 %_3, label %panic, label %bb3, !dbg !2669

bb5:                                              ; preds = %bb3, %bb4
  %0 = load i32, ptr %_0, align 4, !dbg !2670
  ret i32 %0, !dbg !2670

bb3:                                              ; preds = %bb2
  %1 = sub i32 0, %self, !dbg !2669
  store i32 %1, ptr %_0, align 4, !dbg !2669
  br label %bb5, !dbg !2668

panic:                                            ; preds = %bb2
; call core::panicking::panic_const::panic_const_neg_overflow
  call void @_ZN4core9panicking11panic_const24panic_const_neg_overflow17h46f6b4e5fe3e9b7eE(ptr align 8 @alloc_d304c5266651b8490d07d5bcb908bafa) #20, !dbg !2669
  unreachable, !dbg !2669
}

; core::num::<impl u16>::from_be_bytes
; Function Attrs: inlinehint noredzone nounwind
define internal i16 @"_ZN4core3num21_$LT$impl$u20$u16$GT$13from_be_bytes17h5d55dbcf25f37a80E"(i16 %0) unnamed_addr #1 !dbg !2671 {
start:
  %1 = alloca [2 x i8], align 2
  %self.dbg.spill.i.i = alloca [2 x i8], align 2
  %x.dbg.spill.i = alloca [2 x i8], align 2
  %2 = alloca [2 x i8], align 2
  %3 = alloca [2 x i8], align 1
  %4 = alloca [2 x i8], align 2
  %bytes = alloca [2 x i8], align 1
  store i16 %0, ptr %4, align 2
  call void @llvm.memcpy.p0.p0.i64(ptr align 1 %bytes, ptr align 2 %4, i64 2, i1 false)
    #dbg_declare(ptr %bytes, !2675, !DIExpression(), !2676)
  call void @llvm.memcpy.p0.p0.i64(ptr align 1 %3, ptr align 1 %bytes, i64 2, i1 false), !dbg !2677
  call void @llvm.memcpy.p0.p0.i64(ptr align 2 %2, ptr align 1 %3, i64 2, i1 false), !dbg !2677
  %5 = load i16, ptr %2, align 2, !dbg !2677
; call core::num::<impl u16>::from_ne_bytes
  %_2 = call i16 @"_ZN4core3num21_$LT$impl$u20$u16$GT$13from_ne_bytes17h4fee0b590fc22014E"(i16 %5) #19, !dbg !2677
  store i16 %_2, ptr %x.dbg.spill.i, align 2
    #dbg_declare(ptr %x.dbg.spill.i, !2678, !DIExpression(), !2683)
  store i16 %_2, ptr %self.dbg.spill.i.i, align 2
    #dbg_declare(ptr %self.dbg.spill.i.i, !2685, !DIExpression(), !2688)
  %6 = call i16 @llvm.bswap.i16(i16 %_2), !dbg !2690
  store i16 %6, ptr %1, align 2, !dbg !2690
  %_0.i.i = load i16, ptr %1, align 2, !dbg !2690
  ret i16 %_0.i.i, !dbg !2691
}

; core::num::<impl u16>::from_le_bytes
; Function Attrs: inlinehint noredzone nounwind
define internal i16 @"_ZN4core3num21_$LT$impl$u20$u16$GT$13from_le_bytes17hf064cb1cd367c2e9E"(i16 %0) unnamed_addr #1 !dbg !2692 {
start:
  %x.dbg.spill.i = alloca [2 x i8], align 2
  %1 = alloca [2 x i8], align 2
  %2 = alloca [2 x i8], align 1
  %3 = alloca [2 x i8], align 2
  %bytes = alloca [2 x i8], align 1
  store i16 %0, ptr %3, align 2
  call void @llvm.memcpy.p0.p0.i64(ptr align 1 %bytes, ptr align 2 %3, i64 2, i1 false)
    #dbg_declare(ptr %bytes, !2694, !DIExpression(), !2695)
  call void @llvm.memcpy.p0.p0.i64(ptr align 1 %2, ptr align 1 %bytes, i64 2, i1 false), !dbg !2696
  call void @llvm.memcpy.p0.p0.i64(ptr align 2 %1, ptr align 1 %2, i64 2, i1 false), !dbg !2696
  %4 = load i16, ptr %1, align 2, !dbg !2696
; call core::num::<impl u16>::from_ne_bytes
  %_2 = call i16 @"_ZN4core3num21_$LT$impl$u20$u16$GT$13from_ne_bytes17h4fee0b590fc22014E"(i16 %4) #19, !dbg !2696
  store i16 %_2, ptr %x.dbg.spill.i, align 2
    #dbg_declare(ptr %x.dbg.spill.i, !2697, !DIExpression(), !2700)
  ret i16 %_2, !dbg !2702
}

; core::num::<impl u16>::from_ne_bytes
; Function Attrs: inlinehint noredzone nounwind
define internal i16 @"_ZN4core3num21_$LT$impl$u20$u16$GT$13from_ne_bytes17h4fee0b590fc22014E"(i16 %0) unnamed_addr #1 !dbg !2703 {
start:
  %1 = alloca [2 x i8], align 2
  %bytes = alloca [2 x i8], align 1
  store i16 %0, ptr %1, align 2
  call void @llvm.memcpy.p0.p0.i64(ptr align 1 %bytes, ptr align 2 %1, i64 2, i1 false)
    #dbg_declare(ptr %bytes, !2705, !DIExpression(), !2706)
  %_0 = load i16, ptr %bytes, align 1, !dbg !2707
  ret i16 %_0, !dbg !2708
}

; core::num::<impl u16>::is_utf16_surrogate
; Function Attrs: inlinehint noredzone nounwind
define internal zeroext i1 @"_ZN4core3num21_$LT$impl$u20$u16$GT$18is_utf16_surrogate17hfe25fbb9c2d48aa9E"(i16 zeroext %self) unnamed_addr #1 !dbg !2709 {
start:
  %self.dbg.spill = alloca [2 x i8], align 2
  %_0 = alloca [1 x i8], align 1
  store i16 %self, ptr %self.dbg.spill, align 2
    #dbg_declare(ptr %self.dbg.spill, !2713, !DIExpression(), !2714)
  %_2 = icmp ule i16 -10240, %self, !dbg !2715
  br i1 %_2, label %bb2, label %bb1, !dbg !2715

bb1:                                              ; preds = %start
  store i8 0, ptr %_0, align 1, !dbg !2716
  br label %bb3, !dbg !2716

bb2:                                              ; preds = %start
  %_3 = icmp ule i16 %self, -8193, !dbg !2715
  %0 = zext i1 %_3 to i8, !dbg !2715
  store i8 %0, ptr %_0, align 1, !dbg !2715
  br label %bb3, !dbg !2715

bb3:                                              ; preds = %bb2, %bb1
  %1 = load i8, ptr %_0, align 1, !dbg !2718
  %2 = trunc i8 %1 to i1, !dbg !2718
  ret i1 %2, !dbg !2718
}

; core::num::<impl usize>::checked_add
; Function Attrs: inlinehint noredzone nounwind
define internal { i64, i64 } @"_ZN4core3num23_$LT$impl$u20$usize$GT$11checked_add17h48a215522464fcacE"(i64 %self, i64 %rhs) unnamed_addr #1 !dbg !2719 {
start:
  %b.dbg.spill.i = alloca [1 x i8], align 1
  %_0.i = alloca [1 x i8], align 1
  %rhs.dbg.spill = alloca [8 x i8], align 8
  %self.dbg.spill = alloca [8 x i8], align 8
  %_0 = alloca [16 x i8], align 8
  store i64 %self, ptr %self.dbg.spill, align 8
    #dbg_declare(ptr %self.dbg.spill, !2724, !DIExpression(), !2726)
  store i64 %rhs, ptr %rhs.dbg.spill, align 8
    #dbg_declare(ptr %rhs.dbg.spill, !2725, !DIExpression(), !2727)
  %0 = call { i64, i1 } @llvm.uadd.with.overflow.i64(i64 %self, i64 %rhs), !dbg !2728
  %_5.0 = extractvalue { i64, i1 } %0, 0, !dbg !2728
  %_5.1 = extractvalue { i64, i1 } %0, 1, !dbg !2728
  %1 = zext i1 %_5.1 to i8
  store i8 %1, ptr %b.dbg.spill.i, align 1
    #dbg_declare(ptr %b.dbg.spill.i, !2729, !DIExpression(), !2734)
  br i1 %_5.1, label %bb1.i, label %bb3.i, !dbg !2736

bb3.i:                                            ; preds = %start
  store i8 0, ptr %_0.i, align 1, !dbg !2737
  br label %_ZN4core10intrinsics8unlikely17hf21b1b0cde1b5737E.exit, !dbg !2738

bb1.i:                                            ; preds = %start
  store i8 1, ptr %_0.i, align 1, !dbg !2739
  br label %_ZN4core10intrinsics8unlikely17hf21b1b0cde1b5737E.exit, !dbg !2738

_ZN4core10intrinsics8unlikely17hf21b1b0cde1b5737E.exit: ; preds = %bb3.i, %bb1.i
  %2 = load i8, ptr %_0.i, align 1, !dbg !2740
  %3 = trunc i8 %2 to i1, !dbg !2740
  br i1 %3, label %bb2, label %bb3, !dbg !2741

bb3:                                              ; preds = %_ZN4core10intrinsics8unlikely17hf21b1b0cde1b5737E.exit
  %_6 = add nuw i64 %self, %rhs, !dbg !2742
  %4 = getelementptr inbounds i8, ptr %_0, i64 8, !dbg !2743
  store i64 %_6, ptr %4, align 8, !dbg !2743
  store i64 1, ptr %_0, align 8, !dbg !2743
  br label %bb4, !dbg !2744

bb2:                                              ; preds = %_ZN4core10intrinsics8unlikely17hf21b1b0cde1b5737E.exit
  store i64 0, ptr %_0, align 8, !dbg !2745
  br label %bb4, !dbg !2744

bb4:                                              ; preds = %bb2, %bb3
  %5 = load i64, ptr %_0, align 8, !dbg !2746
  %6 = getelementptr inbounds i8, ptr %_0, i64 8, !dbg !2746
  %7 = load i64, ptr %6, align 8, !dbg !2746
  %8 = insertvalue { i64, i64 } poison, i64 %5, 0, !dbg !2746
  %9 = insertvalue { i64, i64 } %8, i64 %7, 1, !dbg !2746
  ret { i64, i64 } %9, !dbg !2746
}

; core::num::<impl usize>::checked_mul
; Function Attrs: inlinehint noredzone nounwind
define internal { i64, i64 } @"_ZN4core3num23_$LT$impl$u20$usize$GT$11checked_mul17h1099cb059e25569fE"(i64 %self, i64 %rhs) unnamed_addr #1 !dbg !2747 {
start:
  %b.dbg.spill.i1 = alloca [1 x i8], align 1
  %a.dbg.spill.i = alloca [8 x i8], align 8
  %rhs.dbg.spill.i = alloca [8 x i8], align 8
  %self.dbg.spill.i = alloca [8 x i8], align 8
  %b.dbg.spill.i = alloca [1 x i8], align 1
  %_0.i = alloca [1 x i8], align 1
  %b.dbg.spill = alloca [1 x i8], align 1
  %a.dbg.spill = alloca [8 x i8], align 8
  %rhs.dbg.spill = alloca [8 x i8], align 8
  %self.dbg.spill = alloca [8 x i8], align 8
  %_0 = alloca [16 x i8], align 8
  store i64 %self, ptr %self.dbg.spill, align 8
    #dbg_declare(ptr %self.dbg.spill, !2749, !DIExpression(), !2754)
  store i64 %rhs, ptr %rhs.dbg.spill, align 8
    #dbg_declare(ptr %rhs.dbg.spill, !2750, !DIExpression(), !2755)
  store i64 %self, ptr %self.dbg.spill.i, align 8
    #dbg_declare(ptr %self.dbg.spill.i, !2756, !DIExpression(), !2769)
  store i64 %rhs, ptr %rhs.dbg.spill.i, align 8
    #dbg_declare(ptr %rhs.dbg.spill.i, !2765, !DIExpression(), !2771)
  %0 = call { i64, i1 } @llvm.umul.with.overflow.i64(i64 %self, i64 %rhs), !dbg !2772
  %_5.0.i = extractvalue { i64, i1 } %0, 0, !dbg !2772
  %_5.1.i = extractvalue { i64, i1 } %0, 1, !dbg !2772
  store i64 %_5.0.i, ptr %a.dbg.spill.i, align 8, !dbg !2773
    #dbg_declare(ptr %a.dbg.spill.i, !2766, !DIExpression(), !2774)
  %1 = zext i1 %_5.1.i to i8, !dbg !2775
  store i8 %1, ptr %b.dbg.spill.i1, align 1, !dbg !2775
    #dbg_declare(ptr %b.dbg.spill.i1, !2768, !DIExpression(), !2776)
  %_5.0 = extractvalue { i64, i1 } %0, 0, !dbg !2777
  %_5.1 = extractvalue { i64, i1 } %0, 1, !dbg !2777
  store i64 %_5.0, ptr %a.dbg.spill, align 8, !dbg !2778
    #dbg_declare(ptr %a.dbg.spill, !2751, !DIExpression(), !2779)
  %2 = zext i1 %_5.1 to i8, !dbg !2780
  store i8 %2, ptr %b.dbg.spill, align 1, !dbg !2780
    #dbg_declare(ptr %b.dbg.spill, !2753, !DIExpression(), !2781)
  %3 = zext i1 %_5.1 to i8
  store i8 %3, ptr %b.dbg.spill.i, align 1
    #dbg_declare(ptr %b.dbg.spill.i, !2729, !DIExpression(), !2782)
  br i1 %_5.1, label %bb1.i, label %bb3.i, !dbg !2784

bb3.i:                                            ; preds = %start
  store i8 0, ptr %_0.i, align 1, !dbg !2785
  br label %_ZN4core10intrinsics8unlikely17hf21b1b0cde1b5737E.exit, !dbg !2786

bb1.i:                                            ; preds = %start
  store i8 1, ptr %_0.i, align 1, !dbg !2787
  br label %_ZN4core10intrinsics8unlikely17hf21b1b0cde1b5737E.exit, !dbg !2786

_ZN4core10intrinsics8unlikely17hf21b1b0cde1b5737E.exit: ; preds = %bb3.i, %bb1.i
  %4 = load i8, ptr %_0.i, align 1, !dbg !2788
  %5 = trunc i8 %4 to i1, !dbg !2788
  br i1 %5, label %bb3, label %bb4, !dbg !2789

bb4:                                              ; preds = %_ZN4core10intrinsics8unlikely17hf21b1b0cde1b5737E.exit
  %6 = getelementptr inbounds i8, ptr %_0, i64 8, !dbg !2790
  store i64 %_5.0, ptr %6, align 8, !dbg !2790
  store i64 1, ptr %_0, align 8, !dbg !2790
  br label %bb5, !dbg !2791

bb3:                                              ; preds = %_ZN4core10intrinsics8unlikely17hf21b1b0cde1b5737E.exit
  store i64 0, ptr %_0, align 8, !dbg !2792
  br label %bb5, !dbg !2791

bb5:                                              ; preds = %bb3, %bb4
  %7 = load i64, ptr %_0, align 8, !dbg !2793
  %8 = getelementptr inbounds i8, ptr %_0, i64 8, !dbg !2793
  %9 = load i64, ptr %8, align 8, !dbg !2793
  %10 = insertvalue { i64, i64 } poison, i64 %7, 0, !dbg !2793
  %11 = insertvalue { i64, i64 } %10, i64 %9, 1, !dbg !2793
  ret { i64, i64 } %11, !dbg !2793
}

; core::num::<impl usize>::checked_sub
; Function Attrs: inlinehint noredzone nounwind
define internal { i64, i64 } @"_ZN4core3num23_$LT$impl$u20$usize$GT$11checked_sub17h483f8f95fa41d001E"(i64 %self, i64 %rhs) unnamed_addr #1 !dbg !2794 {
start:
  %rhs.dbg.spill = alloca [8 x i8], align 8
  %self.dbg.spill = alloca [8 x i8], align 8
  %_0 = alloca [16 x i8], align 8
  store i64 %self, ptr %self.dbg.spill, align 8
    #dbg_declare(ptr %self.dbg.spill, !2796, !DIExpression(), !2798)
  store i64 %rhs, ptr %rhs.dbg.spill, align 8
    #dbg_declare(ptr %rhs.dbg.spill, !2797, !DIExpression(), !2799)
  %_3 = icmp ult i64 %self, %rhs, !dbg !2800
  br i1 %_3, label %bb1, label %bb2, !dbg !2800

bb2:                                              ; preds = %start
  %_4 = sub nuw i64 %self, %rhs, !dbg !2801
  %0 = getelementptr inbounds i8, ptr %_0, i64 8, !dbg !2802
  store i64 %_4, ptr %0, align 8, !dbg !2802
  store i64 1, ptr %_0, align 8, !dbg !2802
  br label %bb3, !dbg !2803

bb1:                                              ; preds = %start
  store i64 0, ptr %_0, align 8, !dbg !2804
  br label %bb3, !dbg !2803

bb3:                                              ; preds = %bb1, %bb2
  %1 = load i64, ptr %_0, align 8, !dbg !2805
  %2 = getelementptr inbounds i8, ptr %_0, i64 8, !dbg !2805
  %3 = load i64, ptr %2, align 8, !dbg !2805
  %4 = insertvalue { i64, i64 } poison, i64 %1, 0, !dbg !2805
  %5 = insertvalue { i64, i64 } %4, i64 %3, 1, !dbg !2805
  ret { i64, i64 } %5, !dbg !2805
}

; core::num::<impl usize>::unchecked_add::precondition_check
; Function Attrs: inlinehint noredzone nounwind
define internal void @"_ZN4core3num23_$LT$impl$u20$usize$GT$13unchecked_add18precondition_check17h90ef0525d3a3b7c6E"(i64 %lhs, i64 %rhs) unnamed_addr #1 !dbg !2806 {
start:
  %b.dbg.spill.i = alloca [1 x i8], align 1
  %a.dbg.spill.i = alloca [8 x i8], align 8
  %rhs.dbg.spill.i = alloca [8 x i8], align 8
  %self.dbg.spill.i = alloca [8 x i8], align 8
  %rhs.dbg.spill = alloca [8 x i8], align 8
  %lhs.dbg.spill = alloca [8 x i8], align 8
  store i64 %lhs, ptr %lhs.dbg.spill, align 8
    #dbg_declare(ptr %lhs.dbg.spill, !2811, !DIExpression(), !2813)
  store i64 %rhs, ptr %rhs.dbg.spill, align 8
    #dbg_declare(ptr %rhs.dbg.spill, !2812, !DIExpression(), !2813)
  store i64 %lhs, ptr %self.dbg.spill.i, align 8
    #dbg_declare(ptr %self.dbg.spill.i, !2814, !DIExpression(), !2821)
  store i64 %rhs, ptr %rhs.dbg.spill.i, align 8
    #dbg_declare(ptr %rhs.dbg.spill.i, !2817, !DIExpression(), !2824)
  %0 = call { i64, i1 } @llvm.uadd.with.overflow.i64(i64 %lhs, i64 %rhs), !dbg !2825
  %_5.0.i = extractvalue { i64, i1 } %0, 0, !dbg !2825
  %_5.1.i = extractvalue { i64, i1 } %0, 1, !dbg !2825
  store i64 %_5.0.i, ptr %a.dbg.spill.i, align 8, !dbg !2826
    #dbg_declare(ptr %a.dbg.spill.i, !2818, !DIExpression(), !2827)
  %1 = zext i1 %_5.1.i to i8, !dbg !2828
  store i8 %1, ptr %b.dbg.spill.i, align 1, !dbg !2828
    #dbg_declare(ptr %b.dbg.spill.i, !2820, !DIExpression(), !2829)
  %_4.0 = extractvalue { i64, i1 } %0, 0, !dbg !2830
  %_4.1 = extractvalue { i64, i1 } %0, 1, !dbg !2830
  br i1 %_4.1, label %bb2, label %bb3, !dbg !2830

bb3:                                              ; preds = %start
  ret void, !dbg !2831

bb2:                                              ; preds = %start
; call core::panicking::panic_nounwind
  call void @_ZN4core9panicking14panic_nounwind17hfc993481fff279c3E(ptr align 1 @alloc_289b84035b3220255b84b8869a538376, i64 69) #20, !dbg !2832
  unreachable, !dbg !2832
}

; core::num::<impl usize>::unchecked_mul::precondition_check
; Function Attrs: inlinehint noredzone nounwind
define internal void @"_ZN4core3num23_$LT$impl$u20$usize$GT$13unchecked_mul18precondition_check17h6a26816055385cd9E"(i64 %lhs, i64 %rhs) unnamed_addr #1 !dbg !2833 {
start:
  %b.dbg.spill.i = alloca [1 x i8], align 1
  %a.dbg.spill.i = alloca [8 x i8], align 8
  %rhs.dbg.spill.i = alloca [8 x i8], align 8
  %self.dbg.spill.i = alloca [8 x i8], align 8
  %rhs.dbg.spill = alloca [8 x i8], align 8
  %lhs.dbg.spill = alloca [8 x i8], align 8
  store i64 %lhs, ptr %lhs.dbg.spill, align 8
    #dbg_declare(ptr %lhs.dbg.spill, !2836, !DIExpression(), !2838)
  store i64 %rhs, ptr %rhs.dbg.spill, align 8
    #dbg_declare(ptr %rhs.dbg.spill, !2837, !DIExpression(), !2838)
  store i64 %lhs, ptr %self.dbg.spill.i, align 8
    #dbg_declare(ptr %self.dbg.spill.i, !2756, !DIExpression(), !2839)
  store i64 %rhs, ptr %rhs.dbg.spill.i, align 8
    #dbg_declare(ptr %rhs.dbg.spill.i, !2765, !DIExpression(), !2842)
  %0 = call { i64, i1 } @llvm.umul.with.overflow.i64(i64 %lhs, i64 %rhs), !dbg !2843
  %_5.0.i = extractvalue { i64, i1 } %0, 0, !dbg !2843
  %_5.1.i = extractvalue { i64, i1 } %0, 1, !dbg !2843
  store i64 %_5.0.i, ptr %a.dbg.spill.i, align 8, !dbg !2844
    #dbg_declare(ptr %a.dbg.spill.i, !2766, !DIExpression(), !2845)
  %1 = zext i1 %_5.1.i to i8, !dbg !2846
  store i8 %1, ptr %b.dbg.spill.i, align 1, !dbg !2846
    #dbg_declare(ptr %b.dbg.spill.i, !2768, !DIExpression(), !2847)
  %_4.0 = extractvalue { i64, i1 } %0, 0, !dbg !2848
  %_4.1 = extractvalue { i64, i1 } %0, 1, !dbg !2848
  br i1 %_4.1, label %bb2, label %bb3, !dbg !2848

bb3:                                              ; preds = %start
  ret void, !dbg !2849

bb2:                                              ; preds = %start
; call core::panicking::panic_nounwind
  call void @_ZN4core9panicking14panic_nounwind17hfc993481fff279c3E(ptr align 1 @alloc_ffc44ed1670ebf78d81555edceff65f6, i64 69) #20, !dbg !2850
  unreachable, !dbg !2850
}

; core::num::<impl usize>::abs_diff
; Function Attrs: inlinehint noredzone nounwind
define internal i64 @"_ZN4core3num23_$LT$impl$u20$usize$GT$8abs_diff17ha9257a7921bb32bdE"(i64 %self, i64 %other) unnamed_addr #1 !dbg !2851 {
start:
  %rhs.dbg.spill.i = alloca [4 x i8], align 4
  %self.dbg.spill.i = alloca [4 x i8], align 4
  %other.dbg.spill = alloca [8 x i8], align 8
  %self.dbg.spill = alloca [8 x i8], align 8
  %_0 = alloca [8 x i8], align 8
  store i64 %self, ptr %self.dbg.spill, align 8
    #dbg_declare(ptr %self.dbg.spill, !2855, !DIExpression(), !2857)
  store i64 %other, ptr %other.dbg.spill, align 8
    #dbg_declare(ptr %other.dbg.spill, !2856, !DIExpression(), !2858)
  %0 = icmp eq i64 8, 1, !dbg !2859
  br i1 %0, label %bb2, label %bb5, !dbg !2859

bb2:                                              ; preds = %start
  %_6 = trunc i64 %self to i32, !dbg !2860
  %_7 = trunc i64 %other to i32, !dbg !2861
  store i32 %_6, ptr %self.dbg.spill.i, align 4
    #dbg_declare(ptr %self.dbg.spill.i, !2862, !DIExpression(), !2868)
  store i32 %_7, ptr %rhs.dbg.spill.i, align 4
    #dbg_declare(ptr %rhs.dbg.spill.i, !2867, !DIExpression(), !2870)
  %_0.i = sub i32 %_6, %_7, !dbg !2871
; call core::num::<impl i32>::abs
  %_4 = call i32 @"_ZN4core3num21_$LT$impl$u20$i32$GT$3abs17h5b6bed69db1a7108E"(i32 signext %_0.i) #19, !dbg !2860
  %1 = sext i32 %_4 to i64, !dbg !2860
  store i64 %1, ptr %_0, align 8, !dbg !2860
  br label %bb10, !dbg !2872

bb5:                                              ; preds = %start
  %_8 = icmp ult i64 %self, %other, !dbg !2873
  br i1 %_8, label %bb6, label %bb8, !dbg !2873

bb10:                                             ; preds = %bb7, %bb9, %bb2
  %2 = load i64, ptr %_0, align 8, !dbg !2874
  ret i64 %2, !dbg !2874

bb8:                                              ; preds = %bb5
  %_10.0 = sub i64 %self, %other, !dbg !2875
  %_10.1 = icmp ult i64 %self, %other, !dbg !2875
  br i1 %_10.1, label %panic, label %bb9, !dbg !2875

bb6:                                              ; preds = %bb5
  %_9.0 = sub i64 %other, %self, !dbg !2876
  %_9.1 = icmp ult i64 %other, %self, !dbg !2876
  br i1 %_9.1, label %panic1, label %bb7, !dbg !2876

bb9:                                              ; preds = %bb8
  store i64 %_10.0, ptr %_0, align 8, !dbg !2875
  br label %bb10, !dbg !2877

panic:                                            ; preds = %bb8
; call core::panicking::panic_const::panic_const_sub_overflow
  call void @_ZN4core9panicking11panic_const24panic_const_sub_overflow17h53fb6c3dd8613dddE(ptr align 8 @alloc_4910c64b4ac045acdaf52a268f526b79) #20, !dbg !2875
  unreachable, !dbg !2875

bb7:                                              ; preds = %bb6
  store i64 %_9.0, ptr %_0, align 8, !dbg !2876
  br label %bb10, !dbg !2877

panic1:                                           ; preds = %bb6
; call core::panicking::panic_const::panic_const_sub_overflow
  call void @_ZN4core9panicking11panic_const24panic_const_sub_overflow17h53fb6c3dd8613dddE(ptr align 8 @alloc_4910c64b4ac045acdaf52a268f526b79) #20, !dbg !2876
  unreachable, !dbg !2876
}

; core::num::<impl usize>::div_ceil
; Function Attrs: inlinehint noredzone nounwind
define internal i64 @"_ZN4core3num23_$LT$impl$u20$usize$GT$8div_ceil17h2de3562e702c6931E"(i64 %self, i64 %rhs, ptr align 8 %0) unnamed_addr #1 !dbg !2878 {
start:
  %r.dbg.spill = alloca [8 x i8], align 8
  %d.dbg.spill = alloca [8 x i8], align 8
  %rhs.dbg.spill = alloca [8 x i8], align 8
  %self.dbg.spill = alloca [8 x i8], align 8
  %_0 = alloca [8 x i8], align 8
  store i64 %self, ptr %self.dbg.spill, align 8
    #dbg_declare(ptr %self.dbg.spill, !2882, !DIExpression(), !2888)
  store i64 %rhs, ptr %rhs.dbg.spill, align 8
    #dbg_declare(ptr %rhs.dbg.spill, !2883, !DIExpression(), !2889)
  %_4 = icmp eq i64 %rhs, 0, !dbg !2890
  br i1 %_4, label %panic, label %bb1, !dbg !2890

bb1:                                              ; preds = %start
  %d = udiv i64 %self, %rhs, !dbg !2890
  store i64 %d, ptr %d.dbg.spill, align 8, !dbg !2890
    #dbg_declare(ptr %d.dbg.spill, !2884, !DIExpression(), !2891)
  %_6 = icmp eq i64 %rhs, 0, !dbg !2892
  br i1 %_6, label %panic1, label %bb2, !dbg !2892

panic:                                            ; preds = %start
; call core::panicking::panic_const::panic_const_div_by_zero
  call void @_ZN4core9panicking11panic_const23panic_const_div_by_zero17h9baa8b25c99cffa1E(ptr align 8 %0) #20, !dbg !2890
  unreachable, !dbg !2890

bb2:                                              ; preds = %bb1
  %r = urem i64 %self, %rhs, !dbg !2892
  store i64 %r, ptr %r.dbg.spill, align 8, !dbg !2892
    #dbg_declare(ptr %r.dbg.spill, !2886, !DIExpression(), !2893)
  %_7 = icmp ugt i64 %r, 0, !dbg !2894
  br i1 %_7, label %bb3, label %bb5, !dbg !2894

panic1:                                           ; preds = %bb1
; call core::panicking::panic_const::panic_const_rem_by_zero
  call void @_ZN4core9panicking11panic_const23panic_const_rem_by_zero17h33ec7c25b61c77dbE(ptr align 8 %0) #20, !dbg !2892
  unreachable, !dbg !2892

bb5:                                              ; preds = %bb2
  store i64 %d, ptr %_0, align 8, !dbg !2895
  br label %bb6, !dbg !2896

bb3:                                              ; preds = %bb2
  %1 = call { i64, i1 } @llvm.uadd.with.overflow.i64(i64 %d, i64 1), !dbg !2897
  %_8.0 = extractvalue { i64, i1 } %1, 0, !dbg !2897
  %_8.1 = extractvalue { i64, i1 } %1, 1, !dbg !2897
  br i1 %_8.1, label %panic2, label %bb4, !dbg !2897

bb6:                                              ; preds = %bb4, %bb5
  %2 = load i64, ptr %_0, align 8, !dbg !2898
  ret i64 %2, !dbg !2898

bb4:                                              ; preds = %bb3
  store i64 %_8.0, ptr %_0, align 8, !dbg !2897
  br label %bb6, !dbg !2896

panic2:                                           ; preds = %bb3
; call core::panicking::panic_const::panic_const_add_overflow
  call void @_ZN4core9panicking11panic_const24panic_const_add_overflow17h4c6b9706f31e349eE(ptr align 8 %0) #20, !dbg !2897
  unreachable, !dbg !2897
}

; core::ops::control_flow::ControlFlow<B,C>::break_value
; Function Attrs: inlinehint noredzone nounwind
define dso_local i32 @"_ZN4core3ops12control_flow24ControlFlow$LT$B$C$C$GT$11break_value17h931e6ead3df1050fE"(i32 signext %0) unnamed_addr #1 !dbg !2899 {
start:
  %x.dbg.spill = alloca [4 x i8], align 4
  %_0 = alloca [4 x i8], align 4
  %self = alloca [4 x i8], align 4
  store i32 %0, ptr %self, align 4
    #dbg_declare(ptr %self, !2904, !DIExpression(), !2907)
  %1 = load i32, ptr %self, align 4, !dbg !2908
  %2 = icmp eq i32 %1, 1114112, !dbg !2908
  %_2 = select i1 %2, i64 0, i64 1, !dbg !2908
  %3 = icmp eq i64 %_2, 0, !dbg !2909
  br i1 %3, label %bb3, label %bb2, !dbg !2909

bb3:                                              ; preds = %start
  store i32 1114112, ptr %_0, align 4, !dbg !2910
  br label %bb6, !dbg !2910

bb2:                                              ; preds = %start
  %x = load i32, ptr %self, align 4, !dbg !2911
  store i32 %x, ptr %x.dbg.spill, align 4, !dbg !2911
    #dbg_declare(ptr %x.dbg.spill, !2905, !DIExpression(), !2912)
  store i32 %x, ptr %_0, align 4, !dbg !2913
  br label %bb6, !dbg !2914

bb6:                                              ; preds = %bb2, %bb3
  %4 = load i32, ptr %self, align 4, !dbg !2915
  %5 = icmp eq i32 %4, 1114112, !dbg !2915
  %_4 = select i1 %5, i64 0, i64 1, !dbg !2915
  %6 = icmp eq i64 %_4, 1, !dbg !2915
  br i1 %6, label %bb4, label %bb5, !dbg !2915

bb4:                                              ; preds = %bb5, %bb6
  %7 = load i32, ptr %_0, align 4, !dbg !2916
  ret i32 %7, !dbg !2916

bb5:                                              ; preds = %bb6
  br label %bb4, !dbg !2915

bb1:                                              ; No predecessors!
  unreachable, !dbg !2908
}

; core::ops::control_flow::ControlFlow<R,<R as core::ops::try_trait::Try>::Output>::from_try
; Function Attrs: inlinehint noredzone nounwind
define dso_local zeroext i1 @"_ZN4core3ops12control_flow77ControlFlow$LT$R$C$$LT$R$u20$as$u20$core..ops..try_trait..Try$GT$..Output$GT$8from_try17h1caaea004344712eE"() unnamed_addr #1 !dbg !2917 {
start:
  %v.dbg.spill1 = alloca [0 x i8], align 1
  %v.dbg.spill = alloca [0 x i8], align 1
  %r.dbg.spill = alloca [0 x i8], align 1
  %_2 = alloca [0 x i8], align 1
  %_0 = alloca [1 x i8], align 1
    #dbg_declare(ptr %r.dbg.spill, !2924, !DIExpression(), !2929)
    #dbg_declare(ptr %v.dbg.spill, !2925, !DIExpression(), !2930)
    #dbg_declare(ptr %v.dbg.spill1, !2927, !DIExpression(), !2931)
; call <core::ops::try_trait::NeverShortCircuit<T> as core::ops::try_trait::Try>::branch
  call void @"_ZN94_$LT$core..ops..try_trait..NeverShortCircuit$LT$T$GT$$u20$as$u20$core..ops..try_trait..Try$GT$6branch17h80636d330e2d6154E"() #19, !dbg !2932
  br label %bb4, !dbg !2933

bb4:                                              ; preds = %start
  store i8 0, ptr %_0, align 1, !dbg !2934
  br label %bb6, !dbg !2935

bb6:                                              ; preds = %bb3, %bb4
  %0 = load i8, ptr %_0, align 1, !dbg !2936
  %1 = trunc i8 %0 to i1, !dbg !2936
  ret i1 %1, !dbg !2936

bb3:                                              ; No predecessors!
; call <core::ops::try_trait::NeverShortCircuit<T> as core::ops::try_trait::FromResidual<core::ops::try_trait::NeverShortCircuitResidual>>::from_residual
  call void @"_ZN158_$LT$core..ops..try_trait..NeverShortCircuit$LT$T$GT$$u20$as$u20$core..ops..try_trait..FromResidual$LT$core..ops..try_trait..NeverShortCircuitResidual$GT$$GT$13from_residual17hda002c82c25223a6E"() #19, !dbg !2937
  store i8 1, ptr %_0, align 1, !dbg !2938
  br label %bb6, !dbg !2939

bb2:                                              ; No predecessors!
  unreachable, !dbg !2932
}

; core::ops::control_flow::ControlFlow<R,<R as core::ops::try_trait::Try>::Output>::into_try
; Function Attrs: inlinehint noredzone nounwind
define dso_local void @"_ZN4core3ops12control_flow77ControlFlow$LT$R$C$$LT$R$u20$as$u20$core..ops..try_trait..Try$GT$..Output$GT$8into_try17heb5fe5b30a334288E"(i1 zeroext %0) unnamed_addr #1 !dbg !2940 {
start:
  %v.dbg.spill1 = alloca [0 x i8], align 1
  %v.dbg.spill = alloca [0 x i8], align 1
  %self = alloca [1 x i8], align 1
  %1 = zext i1 %0 to i8
  store i8 %1, ptr %self, align 1
    #dbg_declare(ptr %self, !2945, !DIExpression(), !2950)
    #dbg_declare(ptr %v.dbg.spill, !2946, !DIExpression(), !2951)
    #dbg_declare(ptr %v.dbg.spill1, !2948, !DIExpression(), !2952)
  %2 = load i8, ptr %self, align 1, !dbg !2953
  %3 = trunc i8 %2 to i1, !dbg !2953
  %_2 = zext i1 %3 to i64, !dbg !2953
  %4 = icmp eq i64 %_2, 0, !dbg !2954
  br i1 %4, label %bb3, label %bb2, !dbg !2954

bb3:                                              ; preds = %start
; call <core::ops::try_trait::NeverShortCircuit<T> as core::ops::try_trait::Try>::from_output
  call void @"_ZN94_$LT$core..ops..try_trait..NeverShortCircuit$LT$T$GT$$u20$as$u20$core..ops..try_trait..Try$GT$11from_output17he735945b32468a36E"() #19, !dbg !2955
  br label %bb4, !dbg !2955

bb2:                                              ; preds = %start
  br label %bb4, !dbg !2956

bb4:                                              ; preds = %bb2, %bb3
  ret void, !dbg !2957

bb1:                                              ; No predecessors!
  unreachable, !dbg !2953
}

; core::ops::function::FnMut::call_mut
; Function Attrs: inlinehint noredzone nounwind
define internal i16 @_ZN4core3ops8function5FnMut8call_mut17h7989d0ab572576f1E(ptr align 1 %_1, i16 %0) unnamed_addr #1 !dbg !2958 {
start:
  %1 = alloca [2 x i8], align 2
  %_1.dbg.spill = alloca [8 x i8], align 8
  %2 = alloca [2 x i8], align 2
  %_2 = alloca [2 x i8], align 1
  store i16 %0, ptr %2, align 2
  call void @llvm.memcpy.p0.p0.i64(ptr align 1 %_2, ptr align 2 %2, i64 2, i1 false)
  store ptr %_1, ptr %_1.dbg.spill, align 8
    #dbg_declare(ptr %_1.dbg.spill, !2966, !DIExpression(), !2974)
    #dbg_declare(ptr %_2, !2967, !DIExpression(), !2974)
  call void @llvm.memcpy.p0.p0.i64(ptr align 2 %1, ptr align 1 %_2, i64 2, i1 false), !dbg !2974
  %3 = load i16, ptr %1, align 2, !dbg !2974
; call core::num::<impl u16>::from_be_bytes
  %_0 = call i16 @"_ZN4core3num21_$LT$impl$u20$u16$GT$13from_be_bytes17h5d55dbcf25f37a80E"(i16 %3) #19, !dbg !2974
  ret i16 %_0, !dbg !2974
}

; core::ops::function::FnMut::call_mut
; Function Attrs: inlinehint noredzone nounwind
define internal i16 @_ZN4core3ops8function5FnMut8call_mut17hbbad6afb38ae9aacE(ptr align 1 %_1, i16 %0) unnamed_addr #1 !dbg !2975 {
start:
  %1 = alloca [2 x i8], align 2
  %_1.dbg.spill = alloca [8 x i8], align 8
  %2 = alloca [2 x i8], align 2
  %_2 = alloca [2 x i8], align 1
  store i16 %0, ptr %2, align 2
  call void @llvm.memcpy.p0.p0.i64(ptr align 1 %_2, ptr align 2 %2, i64 2, i1 false)
  store ptr %_1, ptr %_1.dbg.spill, align 8
    #dbg_declare(ptr %_1.dbg.spill, !2977, !DIExpression(), !2979)
    #dbg_declare(ptr %_2, !2978, !DIExpression(), !2979)
  call void @llvm.memcpy.p0.p0.i64(ptr align 2 %1, ptr align 1 %_2, i64 2, i1 false), !dbg !2979
  %3 = load i16, ptr %1, align 2, !dbg !2979
; call core::num::<impl u16>::from_le_bytes
  %_0 = call i16 @"_ZN4core3num21_$LT$impl$u20$u16$GT$13from_le_bytes17hf064cb1cd367c2e9E"(i16 %3) #19, !dbg !2979
  ret i16 %_0, !dbg !2979
}

; core::ops::function::impls::<impl core::ops::function::FnOnce<A> for &mut F>::call_once
; Function Attrs: noredzone nounwind
define dso_local i16 @"_ZN4core3ops8function5impls80_$LT$impl$u20$core..ops..function..FnOnce$LT$A$GT$$u20$for$u20$$RF$mut$u20$F$GT$9call_once17h2f73320d6fb7f6d0E"(ptr align 1 %self, i16 %0) unnamed_addr #0 !dbg !2980 {
start:
  %1 = alloca [2 x i8], align 2
  %self.dbg.spill = alloca [8 x i8], align 8
  %2 = alloca [2 x i8], align 2
  %args = alloca [2 x i8], align 1
  store i16 %0, ptr %2, align 2
  call void @llvm.memcpy.p0.p0.i64(ptr align 1 %args, ptr align 2 %2, i64 2, i1 false)
  store ptr %self, ptr %self.dbg.spill, align 8
    #dbg_declare(ptr %self.dbg.spill, !2984, !DIExpression(), !2988)
    #dbg_declare(ptr %args, !2985, !DIExpression(), !2989)
  call void @llvm.memcpy.p0.p0.i64(ptr align 2 %1, ptr align 1 %args, i64 2, i1 false), !dbg !2990
  %3 = load i16, ptr %1, align 2, !dbg !2990
; call core::ops::function::FnMut::call_mut
  %_0 = call i16 @_ZN4core3ops8function5FnMut8call_mut17h7989d0ab572576f1E(ptr align 1 %self, i16 %3) #19, !dbg !2990
  ret i16 %_0, !dbg !2991
}

; core::ops::function::impls::<impl core::ops::function::FnOnce<A> for &mut F>::call_once
; Function Attrs: noredzone nounwind
define dso_local i16 @"_ZN4core3ops8function5impls80_$LT$impl$u20$core..ops..function..FnOnce$LT$A$GT$$u20$for$u20$$RF$mut$u20$F$GT$9call_once17he49726397a5040ccE"(ptr align 1 %self, i16 %0) unnamed_addr #0 !dbg !2992 {
start:
  %1 = alloca [2 x i8], align 2
  %self.dbg.spill = alloca [8 x i8], align 8
  %2 = alloca [2 x i8], align 2
  %args = alloca [2 x i8], align 1
  store i16 %0, ptr %2, align 2
  call void @llvm.memcpy.p0.p0.i64(ptr align 1 %args, ptr align 2 %2, i64 2, i1 false)
  store ptr %self, ptr %self.dbg.spill, align 8
    #dbg_declare(ptr %self.dbg.spill, !2994, !DIExpression(), !2996)
    #dbg_declare(ptr %args, !2995, !DIExpression(), !2997)
  call void @llvm.memcpy.p0.p0.i64(ptr align 2 %1, ptr align 1 %args, i64 2, i1 false), !dbg !2998
  %3 = load i16, ptr %1, align 2, !dbg !2998
; call core::ops::function::FnMut::call_mut
  %_0 = call i16 @_ZN4core3ops8function5FnMut8call_mut17hbbad6afb38ae9aacE(ptr align 1 %self, i16 %3) #19, !dbg !2998
  ret i16 %_0, !dbg !2999
}

; core::ops::try_trait::NeverShortCircuit<T>::wrap_mut_2
; Function Attrs: inlinehint noredzone nounwind
define dso_local align 8 ptr @"_ZN4core3ops9try_trait26NeverShortCircuit$LT$T$GT$10wrap_mut_217h98dfac8b1641c412E"(ptr align 8 %f) unnamed_addr #1 !dbg !3000 {
start:
  %f.dbg.spill = alloca [8 x i8], align 8
  store ptr %f, ptr %f.dbg.spill, align 8
    #dbg_declare(ptr %f.dbg.spill, !3008, !DIExpression(), !3009)
  ret ptr %f, !dbg !3010
}

; core::ops::try_trait::NeverShortCircuit<T>::wrap_mut_2
; Function Attrs: inlinehint noredzone nounwind
define dso_local align 8 ptr @"_ZN4core3ops9try_trait26NeverShortCircuit$LT$T$GT$10wrap_mut_217hf7734f8bacd29157E"(ptr align 8 %f) unnamed_addr #1 !dbg !3011 {
start:
  %f.dbg.spill = alloca [8 x i8], align 8
  store ptr %f, ptr %f.dbg.spill, align 8
    #dbg_declare(ptr %f.dbg.spill, !3018, !DIExpression(), !3019)
  ret ptr %f, !dbg !3020
}

; core::ops::try_trait::NeverShortCircuit<T>::wrap_mut_2::{{closure}}
; Function Attrs: inlinehint noredzone nounwind
define dso_local void @"_ZN4core3ops9try_trait26NeverShortCircuit$LT$T$GT$10wrap_mut_228_$u7b$$u7b$closure$u7d$$u7d$17h1641c08e0e8259a1E"(ptr align 8 %_1, i32 signext %b) unnamed_addr #1 !dbg !3021 {
start:
  %b.dbg.spill = alloca [4 x i8], align 4
  %a.dbg.spill = alloca [0 x i8], align 1
  %_1.dbg.spill = alloca [8 x i8], align 8
  store ptr %_1, ptr %_1.dbg.spill, align 8
    #dbg_declare(ptr %_1.dbg.spill, !3027, !DIExpression(DW_OP_deref), !3028)
    #dbg_declare(ptr %a.dbg.spill, !3025, !DIExpression(), !3029)
  store i32 %b, ptr %b.dbg.spill, align 4
    #dbg_declare(ptr %b.dbg.spill, !3026, !DIExpression(), !3030)
; call core::iter::traits::iterator::Iterator::for_each::call::{{closure}}
  call void @"_ZN4core4iter6traits8iterator8Iterator8for_each4call28_$u7b$$u7b$closure$u7d$$u7d$17h62f5d3aa93029042E"(ptr align 8 %_1, i32 signext %b) #19, !dbg !3031
  ret void, !dbg !3032
}

; core::ops::try_trait::NeverShortCircuit<T>::wrap_mut_2::{{closure}}
; Function Attrs: inlinehint noredzone nounwind
define dso_local void @"_ZN4core3ops9try_trait26NeverShortCircuit$LT$T$GT$10wrap_mut_228_$u7b$$u7b$closure$u7d$$u7d$17hf30d866d56315808E"(ptr align 8 %_1, i32 signext %b) unnamed_addr #1 !dbg !3033 {
start:
  %b.dbg.spill = alloca [4 x i8], align 4
  %a.dbg.spill = alloca [0 x i8], align 1
  %_1.dbg.spill = alloca [8 x i8], align 8
  store ptr %_1, ptr %_1.dbg.spill, align 8
    #dbg_declare(ptr %_1.dbg.spill, !3039, !DIExpression(DW_OP_deref), !3040)
    #dbg_declare(ptr %a.dbg.spill, !3037, !DIExpression(), !3041)
  store i32 %b, ptr %b.dbg.spill, align 4
    #dbg_declare(ptr %b.dbg.spill, !3038, !DIExpression(), !3042)
; call core::iter::traits::iterator::Iterator::for_each::call::{{closure}}
  call void @"_ZN4core4iter6traits8iterator8Iterator8for_each4call28_$u7b$$u7b$closure$u7d$$u7d$17h2b128d7671aea31cE"(ptr align 8 %_1, i32 signext %b) #19, !dbg !3043
  ret void, !dbg !3044
}

; core::ptr::read_volatile
; Function Attrs: inlinehint noredzone nounwind
define dso_local i8 @_ZN4core3ptr13read_volatile17h714bdb722e2b088bE(ptr %src) unnamed_addr #1 !dbg !3045 {
start:
  %0 = alloca [1 x i8], align 1
  %src.dbg.spill = alloca [8 x i8], align 8
  store ptr %src, ptr %src.dbg.spill, align 8
    #dbg_declare(ptr %src.dbg.spill, !3050, !DIExpression(), !3051)
; call core::ub_checks::check_language_ub
  %_2 = call zeroext i1 @_ZN4core9ub_checks17check_language_ub17h8cd5813a762f8301E() #19, !dbg !3052
  br i1 %_2, label %bb2, label %bb4, !dbg !3052

bb4:                                              ; preds = %bb2, %start
  %1 = load volatile i8, ptr %src, align 1, !dbg !3054
  store i8 %1, ptr %0, align 1, !dbg !3054
  %_0 = load i8, ptr %0, align 1, !dbg !3054
  ret i8 %_0, !dbg !3055

bb2:                                              ; preds = %start
; call core::ptr::read_volatile::precondition_check
  call void @_ZN4core3ptr13read_volatile18precondition_check17hca0cf469d8ed1accE(ptr %src, i64 1, i1 zeroext false) #19, !dbg !3056
  br label %bb4, !dbg !3056
}

; core::ptr::read_volatile::precondition_check
; Function Attrs: inlinehint noredzone nounwind
define internal void @_ZN4core3ptr13read_volatile18precondition_check17hca0cf469d8ed1accE(ptr %addr, i64 %align, i1 zeroext %is_zst) unnamed_addr #1 !dbg !3057 {
start:
  %is_zst.dbg.spill = alloca [1 x i8], align 1
  %align.dbg.spill = alloca [8 x i8], align 8
  %addr.dbg.spill = alloca [8 x i8], align 8
  store ptr %addr, ptr %addr.dbg.spill, align 8
    #dbg_declare(ptr %addr.dbg.spill, !3060, !DIExpression(), !3063)
  store i64 %align, ptr %align.dbg.spill, align 8
    #dbg_declare(ptr %align.dbg.spill, !3061, !DIExpression(), !3063)
  %0 = zext i1 %is_zst to i8
  store i8 %0, ptr %is_zst.dbg.spill, align 1
    #dbg_declare(ptr %is_zst.dbg.spill, !3062, !DIExpression(), !3063)
; call core::ub_checks::maybe_is_aligned_and_not_null
  %_4 = call zeroext i1 @_ZN4core9ub_checks29maybe_is_aligned_and_not_null17h6643f32b77cc48d8E(ptr %addr, i64 %align, i1 zeroext %is_zst) #19, !dbg !3064
  br i1 %_4, label %bb2, label %bb3, !dbg !3064

bb3:                                              ; preds = %start
; call core::panicking::panic_nounwind
  call void @_ZN4core9panicking14panic_nounwind17hfc993481fff279c3E(ptr align 1 @alloc_d4d2a2a8539eafc62756407d946babb3, i64 110) #20, !dbg !3066
  unreachable, !dbg !3066

bb2:                                              ; preds = %start
  ret void, !dbg !3067
}

; core::ptr::drop_in_place<<alloc::vec::drain::Drain<T,A> as core::ops::drop::Drop>::drop::DropGuard<u8,alloc::alloc::Global>>
; Function Attrs: noredzone nounwind
define dso_local void @"_ZN4core3ptr149drop_in_place$LT$$LT$alloc..vec..drain..Drain$LT$T$C$A$GT$$u20$as$u20$core..ops..drop..Drop$GT$..drop..DropGuard$LT$u8$C$alloc..alloc..Global$GT$$GT$17hd0cd1a95236e015dE"(ptr align 8 %_1) unnamed_addr #0 !dbg !3068 {
start:
  %_1.dbg.spill = alloca [8 x i8], align 8
  store ptr %_1, ptr %_1.dbg.spill, align 8
    #dbg_declare(ptr %_1.dbg.spill, !3092, !DIExpression(), !3095)
; call <<alloc::vec::drain::Drain<T,A> as core::ops::drop::Drop>::drop::DropGuard<T,A> as core::ops::drop::Drop>::drop
  call void @"_ZN150_$LT$$LT$alloc..vec..drain..Drain$LT$T$C$A$GT$$u20$as$u20$core..ops..drop..Drop$GT$..drop..DropGuard$LT$T$C$A$GT$$u20$as$u20$core..ops..drop..Drop$GT$4drop17he8242861257fb4f1E"(ptr align 8 %_1) #19, !dbg !3095
  ret void, !dbg !3095
}

; core::ptr::slice_from_raw_parts
; Function Attrs: inlinehint noredzone nounwind
define dso_local { ptr, i64 } @_ZN4core3ptr20slice_from_raw_parts17h93ab6bc7c634651bE(ptr %data, i64 %len) unnamed_addr #1 !dbg !3096 {
start:
  %len.dbg.spill = alloca [8 x i8], align 8
  %data.dbg.spill = alloca [8 x i8], align 8
  store ptr %data, ptr %data.dbg.spill, align 8
    #dbg_declare(ptr %data.dbg.spill, !3105, !DIExpression(), !3107)
  store i64 %len, ptr %len.dbg.spill, align 8
    #dbg_declare(ptr %len.dbg.spill, !3106, !DIExpression(), !3108)
; call core::ptr::metadata::from_raw_parts
  %0 = call { ptr, i64 } @_ZN4core3ptr8metadata14from_raw_parts17h05bc0f2b21cd6fd0E(ptr %data, i64 %len) #19, !dbg !3109
  %_0.0 = extractvalue { ptr, i64 } %0, 0, !dbg !3109
  %_0.1 = extractvalue { ptr, i64 } %0, 1, !dbg !3109
  %1 = insertvalue { ptr, i64 } poison, ptr %_0.0, 0, !dbg !3110
  %2 = insertvalue { ptr, i64 } %1, i64 %_0.1, 1, !dbg !3110
  ret { ptr, i64 } %2, !dbg !3110
}

; core::ptr::slice_from_raw_parts
; Function Attrs: inlinehint noredzone nounwind
define dso_local { ptr, i64 } @_ZN4core3ptr20slice_from_raw_parts17hc2637c05955ff3d5E(ptr %data, i64 %len) unnamed_addr #1 !dbg !3111 {
start:
  %len.dbg.spill = alloca [8 x i8], align 8
  %data.dbg.spill = alloca [8 x i8], align 8
  store ptr %data, ptr %data.dbg.spill, align 8
    #dbg_declare(ptr %data.dbg.spill, !3120, !DIExpression(), !3122)
  store i64 %len, ptr %len.dbg.spill, align 8
    #dbg_declare(ptr %len.dbg.spill, !3121, !DIExpression(), !3123)
; call core::ptr::metadata::from_raw_parts
  %0 = call { ptr, i64 } @_ZN4core3ptr8metadata14from_raw_parts17had41452b219de104E(ptr %data, i64 %len) #19, !dbg !3124
  %_0.0 = extractvalue { ptr, i64 } %0, 0, !dbg !3124
  %_0.1 = extractvalue { ptr, i64 } %0, 1, !dbg !3124
  %1 = insertvalue { ptr, i64 } poison, ptr %_0.0, 0, !dbg !3125
  %2 = insertvalue { ptr, i64 } %1, i64 %_0.1, 1, !dbg !3125
  ret { ptr, i64 } %2, !dbg !3125
}

